
ModifyAngle.elf:     file format elf32-avr

Sections:
Idx Name          Size      VMA       LMA       File off  Algn
  0 .text         00000e54  00000000  00000000  00000074  2**1
                  CONTENTS, ALLOC, LOAD, READONLY, CODE
  1 .data         00000010  00802000  00000e54  00000ec8  2**0
                  CONTENTS, ALLOC, LOAD, DATA
  2 .comment      00000030  00000000  00000000  00000ed8  2**0
                  CONTENTS, READONLY
  3 .note.gnu.avr.deviceinfo 00000040  00000000  00000000  00000f08  2**2
                  CONTENTS, READONLY
  4 .debug_aranges 00000048  00000000  00000000  00000f48  2**0
                  CONTENTS, READONLY, DEBUGGING
  5 .debug_info   00002cb4  00000000  00000000  00000f90  2**0
                  CONTENTS, READONLY, DEBUGGING
  6 .debug_abbrev 00002763  00000000  00000000  00003c44  2**0
                  CONTENTS, READONLY, DEBUGGING
  7 .debug_line   00000858  00000000  00000000  000063a7  2**0
                  CONTENTS, READONLY, DEBUGGING
  8 .debug_frame  000000b0  00000000  00000000  00006c00  2**2
                  CONTENTS, READONLY, DEBUGGING
  9 .debug_str    00001d43  00000000  00000000  00006cb0  2**0
                  CONTENTS, READONLY, DEBUGGING
 10 .debug_loc    0000013e  00000000  00000000  000089f3  2**0
                  CONTENTS, READONLY, DEBUGGING
 11 .debug_ranges 00000028  00000000  00000000  00008b31  2**0
                  CONTENTS, READONLY, DEBUGGING

Disassembly of section .text:

00000000 <__vectors>:
   0:	0c 94 df 01 	jmp	0x3be	; 0x3be <__ctors_end>
   4:	0c 94 fd 01 	jmp	0x3fa	; 0x3fa <__bad_interrupt>
   8:	0c 94 fd 01 	jmp	0x3fa	; 0x3fa <__bad_interrupt>
   c:	0c 94 fd 01 	jmp	0x3fa	; 0x3fa <__bad_interrupt>
  10:	0c 94 fd 01 	jmp	0x3fa	; 0x3fa <__bad_interrupt>
  14:	0c 94 fd 01 	jmp	0x3fa	; 0x3fa <__bad_interrupt>
  18:	0c 94 fd 01 	jmp	0x3fa	; 0x3fa <__bad_interrupt>
  1c:	0c 94 fd 01 	jmp	0x3fa	; 0x3fa <__bad_interrupt>
  20:	0c 94 fd 01 	jmp	0x3fa	; 0x3fa <__bad_interrupt>
  24:	0c 94 fd 01 	jmp	0x3fa	; 0x3fa <__bad_interrupt>
  28:	0c 94 fd 01 	jmp	0x3fa	; 0x3fa <__bad_interrupt>
  2c:	0c 94 fd 01 	jmp	0x3fa	; 0x3fa <__bad_interrupt>
  30:	0c 94 fd 01 	jmp	0x3fa	; 0x3fa <__bad_interrupt>
  34:	0c 94 fd 01 	jmp	0x3fa	; 0x3fa <__bad_interrupt>
  38:	0c 94 fd 01 	jmp	0x3fa	; 0x3fa <__bad_interrupt>
  3c:	0c 94 fd 01 	jmp	0x3fa	; 0x3fa <__bad_interrupt>
  40:	0c 94 fd 01 	jmp	0x3fa	; 0x3fa <__bad_interrupt>
  44:	0c 94 fd 01 	jmp	0x3fa	; 0x3fa <__bad_interrupt>
  48:	0c 94 fd 01 	jmp	0x3fa	; 0x3fa <__bad_interrupt>
  4c:	0c 94 fd 01 	jmp	0x3fa	; 0x3fa <__bad_interrupt>
  50:	0c 94 fd 01 	jmp	0x3fa	; 0x3fa <__bad_interrupt>
  54:	0c 94 fd 01 	jmp	0x3fa	; 0x3fa <__bad_interrupt>
  58:	0c 94 fd 01 	jmp	0x3fa	; 0x3fa <__bad_interrupt>
  5c:	0c 94 fd 01 	jmp	0x3fa	; 0x3fa <__bad_interrupt>
  60:	0c 94 fd 01 	jmp	0x3fa	; 0x3fa <__bad_interrupt>
  64:	0c 94 fd 01 	jmp	0x3fa	; 0x3fa <__bad_interrupt>
  68:	0c 94 fd 01 	jmp	0x3fa	; 0x3fa <__bad_interrupt>
  6c:	0c 94 fd 01 	jmp	0x3fa	; 0x3fa <__bad_interrupt>
  70:	0c 94 fd 01 	jmp	0x3fa	; 0x3fa <__bad_interrupt>
  74:	0c 94 fd 01 	jmp	0x3fa	; 0x3fa <__bad_interrupt>
  78:	0c 94 fd 01 	jmp	0x3fa	; 0x3fa <__bad_interrupt>
  7c:	0c 94 fd 01 	jmp	0x3fa	; 0x3fa <__bad_interrupt>
  80:	0c 94 fd 01 	jmp	0x3fa	; 0x3fa <__bad_interrupt>
  84:	0c 94 fd 01 	jmp	0x3fa	; 0x3fa <__bad_interrupt>
  88:	0c 94 fd 01 	jmp	0x3fa	; 0x3fa <__bad_interrupt>
  8c:	0c 94 fd 01 	jmp	0x3fa	; 0x3fa <__bad_interrupt>
  90:	0c 94 fd 01 	jmp	0x3fa	; 0x3fa <__bad_interrupt>
  94:	0c 94 fd 01 	jmp	0x3fa	; 0x3fa <__bad_interrupt>
  98:	0c 94 fd 01 	jmp	0x3fa	; 0x3fa <__bad_interrupt>
  9c:	0c 94 fd 01 	jmp	0x3fa	; 0x3fa <__bad_interrupt>
  a0:	0c 94 fd 01 	jmp	0x3fa	; 0x3fa <__bad_interrupt>
  a4:	0c 94 fd 01 	jmp	0x3fa	; 0x3fa <__bad_interrupt>
  a8:	0c 94 fd 01 	jmp	0x3fa	; 0x3fa <__bad_interrupt>
  ac:	0c 94 fd 01 	jmp	0x3fa	; 0x3fa <__bad_interrupt>
  b0:	0c 94 fd 01 	jmp	0x3fa	; 0x3fa <__bad_interrupt>
  b4:	0c 94 fd 01 	jmp	0x3fa	; 0x3fa <__bad_interrupt>
  b8:	0c 94 fd 01 	jmp	0x3fa	; 0x3fa <__bad_interrupt>
  bc:	0c 94 fd 01 	jmp	0x3fa	; 0x3fa <__bad_interrupt>
  c0:	0c 94 fd 01 	jmp	0x3fa	; 0x3fa <__bad_interrupt>
  c4:	0c 94 fd 01 	jmp	0x3fa	; 0x3fa <__bad_interrupt>
  c8:	0c 94 fd 01 	jmp	0x3fa	; 0x3fa <__bad_interrupt>
  cc:	0c 94 fd 01 	jmp	0x3fa	; 0x3fa <__bad_interrupt>
  d0:	0c 94 fd 01 	jmp	0x3fa	; 0x3fa <__bad_interrupt>
  d4:	0c 94 fd 01 	jmp	0x3fa	; 0x3fa <__bad_interrupt>
  d8:	0c 94 fd 01 	jmp	0x3fa	; 0x3fa <__bad_interrupt>
  dc:	0c 94 fd 01 	jmp	0x3fa	; 0x3fa <__bad_interrupt>
  e0:	0c 94 fd 01 	jmp	0x3fa	; 0x3fa <__bad_interrupt>
  e4:	0c 94 fd 01 	jmp	0x3fa	; 0x3fa <__bad_interrupt>
  e8:	0c 94 fd 01 	jmp	0x3fa	; 0x3fa <__bad_interrupt>
  ec:	0c 94 fd 01 	jmp	0x3fa	; 0x3fa <__bad_interrupt>
  f0:	0c 94 fd 01 	jmp	0x3fa	; 0x3fa <__bad_interrupt>
  f4:	0c 94 fd 01 	jmp	0x3fa	; 0x3fa <__bad_interrupt>
  f8:	0c 94 fd 01 	jmp	0x3fa	; 0x3fa <__bad_interrupt>
  fc:	0c 94 fd 01 	jmp	0x3fa	; 0x3fa <__bad_interrupt>
 100:	0c 94 fd 01 	jmp	0x3fa	; 0x3fa <__bad_interrupt>
 104:	0c 94 fd 01 	jmp	0x3fa	; 0x3fa <__bad_interrupt>
 108:	0c 94 fd 01 	jmp	0x3fa	; 0x3fa <__bad_interrupt>
 10c:	0c 94 fd 01 	jmp	0x3fa	; 0x3fa <__bad_interrupt>
 110:	0c 94 fd 01 	jmp	0x3fa	; 0x3fa <__bad_interrupt>
 114:	0c 94 fd 01 	jmp	0x3fa	; 0x3fa <__bad_interrupt>
 118:	0c 94 fd 01 	jmp	0x3fa	; 0x3fa <__bad_interrupt>
 11c:	0c 94 fd 01 	jmp	0x3fa	; 0x3fa <__bad_interrupt>
 120:	0c 94 fd 01 	jmp	0x3fa	; 0x3fa <__bad_interrupt>
 124:	0c 94 fd 01 	jmp	0x3fa	; 0x3fa <__bad_interrupt>
 128:	0c 94 fd 01 	jmp	0x3fa	; 0x3fa <__bad_interrupt>
 12c:	0c 94 fd 01 	jmp	0x3fa	; 0x3fa <__bad_interrupt>
 130:	0c 94 fd 01 	jmp	0x3fa	; 0x3fa <__bad_interrupt>
 134:	0c 94 fd 01 	jmp	0x3fa	; 0x3fa <__bad_interrupt>
 138:	0c 94 fd 01 	jmp	0x3fa	; 0x3fa <__bad_interrupt>
 13c:	0c 94 fd 01 	jmp	0x3fa	; 0x3fa <__bad_interrupt>
 140:	0c 94 fd 01 	jmp	0x3fa	; 0x3fa <__bad_interrupt>
 144:	0c 94 fd 01 	jmp	0x3fa	; 0x3fa <__bad_interrupt>
 148:	0c 94 fd 01 	jmp	0x3fa	; 0x3fa <__bad_interrupt>
 14c:	0c 94 fd 01 	jmp	0x3fa	; 0x3fa <__bad_interrupt>
 150:	0c 94 fd 01 	jmp	0x3fa	; 0x3fa <__bad_interrupt>
 154:	0c 94 fd 01 	jmp	0x3fa	; 0x3fa <__bad_interrupt>
 158:	0c 94 fd 01 	jmp	0x3fa	; 0x3fa <__bad_interrupt>
 15c:	0c 94 fd 01 	jmp	0x3fa	; 0x3fa <__bad_interrupt>
 160:	0c 94 fd 01 	jmp	0x3fa	; 0x3fa <__bad_interrupt>
 164:	0c 94 fd 01 	jmp	0x3fa	; 0x3fa <__bad_interrupt>
 168:	0c 94 fd 01 	jmp	0x3fa	; 0x3fa <__bad_interrupt>
 16c:	0c 94 fd 01 	jmp	0x3fa	; 0x3fa <__bad_interrupt>
 170:	0c 94 fd 01 	jmp	0x3fa	; 0x3fa <__bad_interrupt>
 174:	0c 94 fd 01 	jmp	0x3fa	; 0x3fa <__bad_interrupt>
 178:	0c 94 fd 01 	jmp	0x3fa	; 0x3fa <__bad_interrupt>
 17c:	0c 94 fd 01 	jmp	0x3fa	; 0x3fa <__bad_interrupt>
 180:	0c 94 fd 01 	jmp	0x3fa	; 0x3fa <__bad_interrupt>
 184:	0c 94 fd 01 	jmp	0x3fa	; 0x3fa <__bad_interrupt>
 188:	0c 94 fd 01 	jmp	0x3fa	; 0x3fa <__bad_interrupt>
 18c:	0c 94 fd 01 	jmp	0x3fa	; 0x3fa <__bad_interrupt>
 190:	0c 94 fd 01 	jmp	0x3fa	; 0x3fa <__bad_interrupt>
 194:	0c 94 fd 01 	jmp	0x3fa	; 0x3fa <__bad_interrupt>
 198:	0c 94 fd 01 	jmp	0x3fa	; 0x3fa <__bad_interrupt>
 19c:	0c 94 fd 01 	jmp	0x3fa	; 0x3fa <__bad_interrupt>
 1a0:	0c 94 fd 01 	jmp	0x3fa	; 0x3fa <__bad_interrupt>
 1a4:	0c 94 fd 01 	jmp	0x3fa	; 0x3fa <__bad_interrupt>
 1a8:	0c 94 fd 01 	jmp	0x3fa	; 0x3fa <__bad_interrupt>
 1ac:	0c 94 fd 01 	jmp	0x3fa	; 0x3fa <__bad_interrupt>
 1b0:	0c 94 fd 01 	jmp	0x3fa	; 0x3fa <__bad_interrupt>
 1b4:	0c 94 fd 01 	jmp	0x3fa	; 0x3fa <__bad_interrupt>
 1b8:	0c 94 fd 01 	jmp	0x3fa	; 0x3fa <__bad_interrupt>
 1bc:	0c 94 fd 01 	jmp	0x3fa	; 0x3fa <__bad_interrupt>
 1c0:	0c 94 fd 01 	jmp	0x3fa	; 0x3fa <__bad_interrupt>
 1c4:	0c 94 fd 01 	jmp	0x3fa	; 0x3fa <__bad_interrupt>
 1c8:	0c 94 fd 01 	jmp	0x3fa	; 0x3fa <__bad_interrupt>
 1cc:	0c 94 fd 01 	jmp	0x3fa	; 0x3fa <__bad_interrupt>
 1d0:	0c 94 fd 01 	jmp	0x3fa	; 0x3fa <__bad_interrupt>
 1d4:	0c 94 fd 01 	jmp	0x3fa	; 0x3fa <__bad_interrupt>
 1d8:	0c 94 fd 01 	jmp	0x3fa	; 0x3fa <__bad_interrupt>
 1dc:	0c 94 fd 01 	jmp	0x3fa	; 0x3fa <__bad_interrupt>
 1e0:	0c 94 fd 01 	jmp	0x3fa	; 0x3fa <__bad_interrupt>
 1e4:	0c 94 fd 01 	jmp	0x3fa	; 0x3fa <__bad_interrupt>
 1e8:	0c 94 fd 01 	jmp	0x3fa	; 0x3fa <__bad_interrupt>
 1ec:	0c 94 fd 01 	jmp	0x3fa	; 0x3fa <__bad_interrupt>
 1f0:	0c 94 fd 01 	jmp	0x3fa	; 0x3fa <__bad_interrupt>
 1f4:	0c 94 fd 01 	jmp	0x3fa	; 0x3fa <__bad_interrupt>
 1f8:	0c 94 fd 01 	jmp	0x3fa	; 0x3fa <__bad_interrupt>

000001fc <__trampolines_end>:
 1fc:	7f 7f       	andi	r23, 0xFF	; 255
 1fe:	00 43       	sbci	r16, 0x30	; 48
 200:	00 00       	nop
 202:	00 00       	nop
 204:	7d 7a       	andi	r23, 0xAD	; 173
 206:	00 43       	sbci	r16, 0x30	; 48
 208:	c2 86       	std	Z+10, r12	; 0x0a
 20a:	0f 40       	sbci	r16, 0x0F	; 15
 20c:	76 6b       	ori	r23, 0xB6	; 182
 20e:	00 43       	sbci	r16, 0x30	; 48
 210:	2a 81       	ldd	r18, Y+2	; 0x02
 212:	8f 40       	sbci	r24, 0x0F	; 15
 214:	6a 52       	subi	r22, 0x2A	; 42
 216:	00 43       	sbci	r16, 0x30	; 48
 218:	c1 33       	cpi	r28, 0x31	; 49
 21a:	d7 40       	sbci	r29, 0x07	; 7
 21c:	5e 2f       	mov	r21, r30
 21e:	00 43       	sbci	r16, 0x30	; 48
 220:	c8 6a       	ori	r28, 0xA8	; 168
 222:	0f 41       	sbci	r16, 0x1F	; 31
 224:	52 02       	muls	r21, r18
 226:	00 43       	sbci	r16, 0x30	; 48
 228:	81 30       	cpi	r24, 0x01	; 1
 22a:	33 41       	sbci	r19, 0x13	; 19
 22c:	96 96       	adiw	r26, 0x26	; 38
 22e:	ff 42       	sbci	r31, 0x2F	; 47
 230:	41 e8       	ldi	r20, 0x81	; 129
 232:	56 41       	sbci	r21, 0x16	; 22
 234:	9a 14       	cp	r9, r10
 236:	ff 42       	sbci	r31, 0x2F	; 47
 238:	3e 8f       	std	Y+30, r19	; 0x1e
 23a:	7a 41       	sbci	r23, 0x1A	; 26
 23c:	b9 7e       	andi	r27, 0xE9	; 233
 23e:	fe 42       	sbci	r31, 0x2E	; 46
 240:	59 11       	cpse	r21, r9
 242:	8f 41       	sbci	r24, 0x1F	; 31
 244:	00 d5       	rcall	.+2560   	; 0xc46 <__floatsisf+0x56>
 246:	fd 42       	sbci	r31, 0x2D	; 45
 248:	eb cf       	rjmp	.-42     	; 0x220 <__trampolines_end+0x24>
 24a:	a0 41       	sbci	r26, 0x10	; 16
 24c:	7c 17       	cp	r23, r28
 24e:	fd 42       	sbci	r31, 0x2D	; 45
 250:	f2 81       	ldd	r31, Z+2	; 0x02
 252:	b2 41       	sbci	r27, 0x12	; 18
 254:	3b 46       	sbci	r19, 0x6B	; 107
 256:	fc 42       	sbci	r31, 0x2C	; 44
 258:	0e 26       	eor	r0, r30
 25a:	c4 41       	sbci	r28, 0x14	; 20
 25c:	4e 61       	ori	r20, 0x1E	; 30
 25e:	fb 42       	sbci	r31, 0x2B	; 43
 260:	de ba       	out	0x1e, r13	; 30
 262:	d5 41       	sbci	r29, 0x15	; 21
 264:	c7 68       	ori	r28, 0x87	; 135
 266:	fa 42       	sbci	r31, 0x2A	; 42
 268:	04 3f       	cpi	r16, 0xF4	; 244
 26a:	e7 41       	sbci	r30, 0x17	; 23
 26c:	b9 5c       	subi	r27, 0xC9	; 201
 26e:	f9 42       	sbci	r31, 0x29	; 41
 270:	21 b1       	in	r18, 0x01	; 1
 272:	f8 41       	sbci	r31, 0x18	; 24
 274:	39 3d       	cpi	r19, 0xD9	; 217
 276:	f8 42       	sbci	r31, 0x28	; 40
 278:	ed 07       	cpc	r30, r29
 27a:	05 42       	sbci	r16, 0x25	; 37
 27c:	5d 0a       	sbc	r5, r29
 27e:	f7 42       	sbci	r31, 0x27	; 39
 280:	ea ac       	ldd	r14, Y+58	; 0x3a
 282:	0d 42       	sbci	r16, 0x2D	; 45
 284:	3e c4       	rjmp	.+2172   	; 0xb02 <__EEPROM_REGION_LENGTH__+0x302>
 286:	f5 42       	sbci	r31, 0x25	; 37
 288:	da 46       	sbci	r29, 0x6A	; 106
 28a:	16 42       	sbci	r17, 0x26	; 38
 28c:	f5 6a       	ori	r31, 0xA5	; 165
 28e:	f4 42       	sbci	r31, 0x24	; 36
 290:	12 d5       	rcall	.+2596   	; 0xcb6 <__fp_szero+0xa>
 292:	1e 42       	sbci	r17, 0x2E	; 46
 294:	9c fe       	.word	0xfe9c	; ????
 296:	f2 42       	sbci	r31, 0x22	; 34
 298:	e8 56       	subi	r30, 0x68	; 104
 29a:	27 42       	sbci	r18, 0x27	; 39
 29c:	50 7f       	andi	r21, 0xF0	; 240
 29e:	f1 42       	sbci	r31, 0x21	; 33
 2a0:	b1 cb       	rjmp	.-2206   	; 0xfffffa04 <__eeprom_end+0xff7efa04>
 2a2:	2f 42       	sbci	r18, 0x2F	; 47
 2a4:	30 ed       	ldi	r19, 0xD0	; 208
 2a6:	ef 42       	sbci	r30, 0x2F	; 47
 2a8:	c5 32       	cpi	r28, 0x25	; 37
 2aa:	38 42       	sbci	r19, 0x28	; 40
 2ac:	59 48       	sbci	r21, 0x89	; 137
 2ae:	ee 42       	sbci	r30, 0x2E	; 46
 2b0:	7b 8b       	std	Y+19, r23	; 0x13
 2b2:	40 42       	sbci	r20, 0x20	; 32
 2b4:	ee 90       	ld	r14, -X
 2b6:	ec 42       	sbci	r30, 0x2C	; 44
 2b8:	2e d5       	rcall	.+2652   	; 0xd16 <__mulsf3_pse+0x32>
 2ba:	48 42       	sbci	r20, 0x28	; 40
 2bc:	11 c7       	rjmp	.+3618   	; 0x10e0 <__data_load_end+0x27c>
 2be:	ea 42       	sbci	r30, 0x2A	; 42
 2c0:	38 0f       	add	r19, r24
 2c2:	51 42       	sbci	r21, 0x21	; 33
 2c4:	e4 ea       	ldi	r30, 0xA4	; 164
 2c6:	e8 42       	sbci	r30, 0x28	; 40
 2c8:	f4 38       	cpi	r31, 0x84	; 132
 2ca:	59 42       	sbci	r21, 0x29	; 41
 2cc:	8e fc       	.word	0xfc8e	; ????
 2ce:	e6 42       	sbci	r30, 0x26	; 38
 2d0:	c0 51       	subi	r28, 0x10	; 16
 2d2:	61 42       	sbci	r22, 0x21	; 33
 2d4:	35 fc       	sbrc	r3, 5
 2d6:	e4 42       	sbci	r30, 0x24	; 36
 2d8:	f9 58       	subi	r31, 0x89	; 137
 2da:	69 42       	sbci	r22, 0x29	; 41
 2dc:	00 ea       	ldi	r16, 0xA0	; 160
 2de:	e2 42       	sbci	r30, 0x22	; 34
 2e0:	01 4e       	sbci	r16, 0xE1	; 225
 2e2:	71 42       	sbci	r23, 0x21	; 33
 2e4:	1a c6       	rjmp	.+3124   	; 0xf1a <__data_load_end+0xb6>
 2e6:	e0 42       	sbci	r30, 0x20	; 32
 2e8:	37 30       	cpi	r19, 0x07	; 7
 2ea:	79 42       	sbci	r23, 0x29	; 41
 2ec:	ad 90       	ld	r10, X+
 2ee:	de 42       	sbci	r29, 0x2E	; 46
 2f0:	7f 7f       	andi	r23, 0xFF	; 255
 2f2:	80 42       	sbci	r24, 0x20	; 32
 2f4:	e4 49       	sbci	r30, 0x94	; 148
 2f6:	dc 42       	sbci	r29, 0x2C	; 44
 2f8:	de 5c       	subi	r29, 0xCE	; 206
 2fa:	84 42       	sbci	r24, 0x24	; 36
 2fc:	ee f1       	brts	.+122    	; 0x378 <lookuptable_arctan+0xc>
 2fe:	d9 42       	sbci	r29, 0x29	; 41
 300:	eb 2f       	mov	r30, r27
 302:	88 42       	sbci	r24, 0x28	; 40
 304:	f9 88       	ldd	r15, Y+17	; 0x11
 306:	d7 42       	sbci	r29, 0x27	; 39
 308:	58 f8       	.word	0xf858	; ????
 30a:	8b 42       	sbci	r24, 0x2B	; 43
 30c:	35 0f       	add	r19, r21
 30e:	d5 42       	sbci	r29, 0x25	; 37
 310:	dc b5       	in	r29, 0x2c	; 44
 312:	8f 42       	sbci	r24, 0x2F	; 47
 314:	d4 84       	ldd	r13, Z+12	; 0x0c
 316:	d2 42       	sbci	r29, 0x22	; 34
 318:	2a 68       	ori	r18, 0x8A	; 138
 31a:	93 42       	sbci	r25, 0x23	; 35
 31c:	09 ea       	ldi	r16, 0xA9	; 169
 31e:	cf 42       	sbci	r28, 0x2F	; 47
 320:	fa 0e       	add	r15, r26
 322:	97 42       	sbci	r25, 0x27	; 39
 324:	07 3f       	cpi	r16, 0xF7	; 247
 326:	cd 42       	sbci	r28, 0x2D	; 45
 328:	03 aa       	std	Z+51, r0	; 0x33
 32a:	9a 42       	sbci	r25, 0x2A	; 42
 32c:	03 84       	ldd	r0, Z+11	; 0x0b
 32e:	ca 42       	sbci	r28, 0x2A	; 42
 330:	fb 38       	cpi	r31, 0x8B	; 139
 332:	9e 42       	sbci	r25, 0x2E	; 46
 334:	35 b9       	out	0x05, r19	; 5
 336:	c7 42       	sbci	r28, 0x27	; 39
 338:	9e bb       	out	0x1e, r25	; 30
 33a:	a1 42       	sbci	r26, 0x21	; 33
 33c:	d4 de       	rcall	.-600    	; 0xe6 <__SREG__+0xa7>
 33e:	c4 42       	sbci	r28, 0x24	; 36
 340:	a3 31       	cpi	r26, 0x13	; 19
 342:	a5 42       	sbci	r26, 0x25	; 37
 344:	18 f5       	brcc	.+70     	; 0x38c <lookuptable_arctan+0x20>
 346:	c1 42       	sbci	r28, 0x21	; 33
 348:	c7 9a       	sbi	0x18, 7	; 24
 34a:	a8 42       	sbci	r26, 0x28	; 40
 34c:	3d fc       	.word	0xfc3d	; ????
 34e:	be 42       	sbci	r27, 0x2E	; 46
 350:	c5 f6       	brhc	.-80     	; 0x302 <__trampolines_end+0x106>
 352:	ab 42       	sbci	r26, 0x2B	; 43
 354:	7d f4       	brhc	.+30     	; 0x374 <lookuptable_arctan+0x8>
 356:	bb 42       	sbci	r27, 0x2B	; 43
 358:	5a 45       	sbci	r21, 0x5A	; 90
 35a:	af 42       	sbci	r26, 0x2F	; 47
 35c:	15 de       	rcall	.-982    	; 0xffffff88 <__eeprom_end+0xff7eff88>
 35e:	b8 42       	sbci	r27, 0x28	; 40
 360:	44 86       	std	Z+12, r4	; 0x0c
 362:	b2 42       	sbci	r27, 0x22	; 34
 364:	42 b9       	out	0x02, r20	; 2
 366:	b5 42       	sbci	r27, 0x25	; 37
 368:	42 b9       	out	0x02, r20	; 2
 36a:	b5 42       	sbci	r27, 0x25	; 37

0000036c <lookuptable_arctan>:
 36c:	00 01 02 03 04 04 05 06 07 08 09 0a 0b 0b 0c 0d     ................
 37c:	0e 0f 10 11 11 12 13 14 15 15 16 17 18 18 19 1a     ................
 38c:	1b 1b 1c 1d 1d 1e 1f 1f 20 21 21 22 23 23 24 24     ........ !!"##$$
 39c:	25 25 26 27 27 28 28 29 29 2a 2a 2b 2b 2c 2c 2d     %%&''(())**++,,-
 3ac:	2d                                                  -

000003ad <lookuptable_position_mirrowed_to_clockwise>:
 3ad:	01 06 00 07 02 05 03 04                             ........

000003b5 <lookuptable_position_clockwise_to_mirrowed>:
 3b5:	02 00 04 06 07 05 01 03 00                          .........

000003be <__ctors_end>:
 3be:	11 24       	eor	r1, r1
 3c0:	1f be       	out	0x3f, r1	; 63
 3c2:	cf ef       	ldi	r28, 0xFF	; 255
 3c4:	cd bf       	out	0x3d, r28	; 61
 3c6:	df e3       	ldi	r29, 0x3F	; 63
 3c8:	de bf       	out	0x3e, r29	; 62
 3ca:	00 e0       	ldi	r16, 0x00	; 0
 3cc:	0c bf       	out	0x3c, r16	; 60
 3ce:	18 be       	out	0x38, r1	; 56
 3d0:	19 be       	out	0x39, r1	; 57
 3d2:	1a be       	out	0x3a, r1	; 58
 3d4:	1b be       	out	0x3b, r1	; 59

000003d6 <__do_copy_data>:
 3d6:	10 e2       	ldi	r17, 0x20	; 32
 3d8:	a0 e0       	ldi	r26, 0x00	; 0
 3da:	b0 e2       	ldi	r27, 0x20	; 32
 3dc:	e4 e5       	ldi	r30, 0x54	; 84
 3de:	fe e0       	ldi	r31, 0x0E	; 14
 3e0:	00 e0       	ldi	r16, 0x00	; 0
 3e2:	0b bf       	out	0x3b, r16	; 59
 3e4:	02 c0       	rjmp	.+4      	; 0x3ea <__do_copy_data+0x14>
 3e6:	07 90       	elpm	r0, Z+
 3e8:	0d 92       	st	X+, r0
 3ea:	a0 31       	cpi	r26, 0x10	; 16
 3ec:	b1 07       	cpc	r27, r17
 3ee:	d9 f7       	brne	.-10     	; 0x3e6 <__do_copy_data+0x10>
 3f0:	1b be       	out	0x3b, r1	; 59
 3f2:	0e 94 ff 01 	call	0x3fe	; 0x3fe <main>
 3f6:	0c 94 28 07 	jmp	0xe50	; 0xe50 <_exit>

000003fa <__bad_interrupt>:
 3fa:	0c 94 00 00 	jmp	0	; 0x0 <__vectors>

000003fe <main>:
#include <avr/io.h>
#include "ModifyAngle/modify_angle.h"


int main(void)
{
 3fe:	cf 93       	push	r28
 400:	df 93       	push	r29
 402:	cd b7       	in	r28, 0x3d	; 61
 404:	de b7       	in	r29, 0x3e	; 62
 406:	c6 54       	subi	r28, 0x46	; 70
 408:	d1 09       	sbc	r29, r1
 40a:	cd bf       	out	0x3d, r28	; 61
 40c:	de bf       	out	0x3e, r29	; 62
	int16_t* temp;


	while (1)
	{
		temp = array[1];
 40e:	ce 01       	movw	r24, r28
 410:	03 96       	adiw	r24, 0x03	; 3
 412:	04 96       	adiw	r24, 0x04	; 4
 414:	89 83       	std	Y+1, r24	; 0x01
 416:	9a 83       	std	Y+2, r25	; 0x02

		array[1][0] = 10; array[1][1] = 220;
 418:	8a e0       	ldi	r24, 0x0A	; 10
 41a:	90 e0       	ldi	r25, 0x00	; 0
 41c:	8f 83       	std	Y+7, r24	; 0x07
 41e:	98 87       	std	Y+8, r25	; 0x08
 420:	8c ed       	ldi	r24, 0xDC	; 220
 422:	90 e0       	ldi	r25, 0x00	; 0
 424:	89 87       	std	Y+9, r24	; 0x09
 426:	9a 87       	std	Y+10, r25	; 0x0a
		array[2][0] = 210; array[2][1] = 230;
 428:	82 ed       	ldi	r24, 0xD2	; 210
 42a:	90 e0       	ldi	r25, 0x00	; 0
 42c:	8b 87       	std	Y+11, r24	; 0x0b
 42e:	9c 87       	std	Y+12, r25	; 0x0c
 430:	86 ee       	ldi	r24, 0xE6	; 230
 432:	90 e0       	ldi	r25, 0x00	; 0
 434:	8d 87       	std	Y+13, r24	; 0x0d
 436:	9e 87       	std	Y+14, r25	; 0x0e
		array[3][0] = 240; array[3][1] = 215;
 438:	80 ef       	ldi	r24, 0xF0	; 240
 43a:	90 e0       	ldi	r25, 0x00	; 0
 43c:	8f 87       	std	Y+15, r24	; 0x0f
 43e:	98 8b       	std	Y+16, r25	; 0x10
 440:	87 ed       	ldi	r24, 0xD7	; 215
 442:	90 e0       	ldi	r25, 0x00	; 0
 444:	89 8b       	std	Y+17, r24	; 0x11
 446:	9a 8b       	std	Y+18, r25	; 0x12
		array[4][0] = 255; array[4][1] = 5;
 448:	8f ef       	ldi	r24, 0xFF	; 255
 44a:	90 e0       	ldi	r25, 0x00	; 0
 44c:	8b 8b       	std	Y+19, r24	; 0x13
 44e:	9c 8b       	std	Y+20, r25	; 0x14
 450:	85 e0       	ldi	r24, 0x05	; 5
 452:	90 e0       	ldi	r25, 0x00	; 0
 454:	8d 8b       	std	Y+21, r24	; 0x15
 456:	9e 8b       	std	Y+22, r25	; 0x16
		array[5][0] = 255; array[5][1] = -5;
 458:	8f ef       	ldi	r24, 0xFF	; 255
 45a:	90 e0       	ldi	r25, 0x00	; 0
 45c:	8f 8b       	std	Y+23, r24	; 0x17
 45e:	98 8f       	std	Y+24, r25	; 0x18
 460:	8b ef       	ldi	r24, 0xFB	; 251
 462:	9f ef       	ldi	r25, 0xFF	; 255
 464:	89 8f       	std	Y+25, r24	; 0x19
 466:	9a 8f       	std	Y+26, r25	; 0x1a
		array[6][0] = 240; array[6][1] = -215;
 468:	80 ef       	ldi	r24, 0xF0	; 240
 46a:	90 e0       	ldi	r25, 0x00	; 0
 46c:	8b 8f       	std	Y+27, r24	; 0x1b
 46e:	9c 8f       	std	Y+28, r25	; 0x1c
 470:	89 e2       	ldi	r24, 0x29	; 41
 472:	9f ef       	ldi	r25, 0xFF	; 255
 474:	8d 8f       	std	Y+29, r24	; 0x1d
 476:	9e 8f       	std	Y+30, r25	; 0x1e
		array[7][0] = 210; array[7][1] = -230;
 478:	82 ed       	ldi	r24, 0xD2	; 210
 47a:	90 e0       	ldi	r25, 0x00	; 0
 47c:	8f 8f       	std	Y+31, r24	; 0x1f
 47e:	98 a3       	std	Y+32, r25	; 0x20
 480:	8a e1       	ldi	r24, 0x1A	; 26
 482:	9f ef       	ldi	r25, 0xFF	; 255
 484:	89 a3       	std	Y+33, r24	; 0x21
 486:	9a a3       	std	Y+34, r25	; 0x22
		array[8][0] = 10; array[8][1] = -220;
 488:	8a e0       	ldi	r24, 0x0A	; 10
 48a:	90 e0       	ldi	r25, 0x00	; 0
 48c:	8b a3       	std	Y+35, r24	; 0x23
 48e:	9c a3       	std	Y+36, r25	; 0x24
 490:	84 e2       	ldi	r24, 0x24	; 36
 492:	9f ef       	ldi	r25, 0xFF	; 255
 494:	8d a3       	std	Y+37, r24	; 0x25
 496:	9e a3       	std	Y+38, r25	; 0x26
		array[9][0] = -10; array[9][1] = -220;
 498:	86 ef       	ldi	r24, 0xF6	; 246
 49a:	9f ef       	ldi	r25, 0xFF	; 255
 49c:	8f a3       	std	Y+39, r24	; 0x27
 49e:	98 a7       	std	Y+40, r25	; 0x28
 4a0:	84 e2       	ldi	r24, 0x24	; 36
 4a2:	9f ef       	ldi	r25, 0xFF	; 255
 4a4:	89 a7       	std	Y+41, r24	; 0x29
 4a6:	9a a7       	std	Y+42, r25	; 0x2a
		array[10][0] = -210; array[10][1] = -230;
 4a8:	8e e2       	ldi	r24, 0x2E	; 46
 4aa:	9f ef       	ldi	r25, 0xFF	; 255
 4ac:	8b a7       	std	Y+43, r24	; 0x2b
 4ae:	9c a7       	std	Y+44, r25	; 0x2c
 4b0:	8a e1       	ldi	r24, 0x1A	; 26
 4b2:	9f ef       	ldi	r25, 0xFF	; 255
 4b4:	8d a7       	std	Y+45, r24	; 0x2d
 4b6:	9e a7       	std	Y+46, r25	; 0x2e
		array[11][0] = -240; array[11][1] = -215;
 4b8:	80 e1       	ldi	r24, 0x10	; 16
 4ba:	9f ef       	ldi	r25, 0xFF	; 255
 4bc:	8f a7       	std	Y+47, r24	; 0x2f
 4be:	98 ab       	std	Y+48, r25	; 0x30
 4c0:	89 e2       	ldi	r24, 0x29	; 41
 4c2:	9f ef       	ldi	r25, 0xFF	; 255
 4c4:	89 ab       	std	Y+49, r24	; 0x31
 4c6:	9a ab       	std	Y+50, r25	; 0x32
		array[12][0] = -255; array[12][1] = -5;
 4c8:	81 e0       	ldi	r24, 0x01	; 1
 4ca:	9f ef       	ldi	r25, 0xFF	; 255
 4cc:	8b ab       	std	Y+51, r24	; 0x33
 4ce:	9c ab       	std	Y+52, r25	; 0x34
 4d0:	8b ef       	ldi	r24, 0xFB	; 251
 4d2:	9f ef       	ldi	r25, 0xFF	; 255
 4d4:	8d ab       	std	Y+53, r24	; 0x35
 4d6:	9e ab       	std	Y+54, r25	; 0x36
		array[12][0] = -255; array[13][1] = 5;
 4d8:	81 e0       	ldi	r24, 0x01	; 1
 4da:	9f ef       	ldi	r25, 0xFF	; 255
 4dc:	8b ab       	std	Y+51, r24	; 0x33
 4de:	9c ab       	std	Y+52, r25	; 0x34
 4e0:	85 e0       	ldi	r24, 0x05	; 5
 4e2:	90 e0       	ldi	r25, 0x00	; 0
 4e4:	89 af       	std	Y+57, r24	; 0x39
 4e6:	9a af       	std	Y+58, r25	; 0x3a
		array[14][0] = -240; array[14][1] = 215;
 4e8:	80 e1       	ldi	r24, 0x10	; 16
 4ea:	9f ef       	ldi	r25, 0xFF	; 255
 4ec:	8b af       	std	Y+59, r24	; 0x3b
 4ee:	9c af       	std	Y+60, r25	; 0x3c
 4f0:	87 ed       	ldi	r24, 0xD7	; 215
 4f2:	90 e0       	ldi	r25, 0x00	; 0
 4f4:	8d af       	std	Y+61, r24	; 0x3d
 4f6:	9e af       	std	Y+62, r25	; 0x3e
		array[15][0] = -210; array[15][1] = 230;
 4f8:	2e e2       	ldi	r18, 0x2E	; 46
 4fa:	3f ef       	ldi	r19, 0xFF	; 255
 4fc:	ce 01       	movw	r24, r28
 4fe:	cf 96       	adiw	r24, 0x3f	; 63
 500:	fc 01       	movw	r30, r24
 502:	20 83       	st	Z, r18
 504:	31 83       	std	Z+1, r19	; 0x01
 506:	ce 01       	movw	r24, r28
 508:	8f 5b       	subi	r24, 0xBF	; 191
 50a:	9f 4f       	sbci	r25, 0xFF	; 255
 50c:	26 ee       	ldi	r18, 0xE6	; 230
 50e:	30 e0       	ldi	r19, 0x00	; 0
 510:	fc 01       	movw	r30, r24
 512:	20 83       	st	Z, r18
 514:	31 83       	std	Z+1, r19	; 0x01
		array[16][0] = -10; array[16][1] = 220;
 516:	ce 01       	movw	r24, r28
 518:	8d 5b       	subi	r24, 0xBD	; 189
 51a:	9f 4f       	sbci	r25, 0xFF	; 255
 51c:	26 ef       	ldi	r18, 0xF6	; 246
 51e:	3f ef       	ldi	r19, 0xFF	; 255
 520:	fc 01       	movw	r30, r24
 522:	20 83       	st	Z, r18
 524:	31 83       	std	Z+1, r19	; 0x01
 526:	ce 01       	movw	r24, r28
 528:	8b 5b       	subi	r24, 0xBB	; 187
 52a:	9f 4f       	sbci	r25, 0xFF	; 255
 52c:	2c ed       	ldi	r18, 0xDC	; 220
 52e:	30 e0       	ldi	r19, 0x00	; 0
 530:	fc 01       	movw	r30, r24
 532:	20 83       	st	Z, r18
 534:	31 83       	std	Z+1, r19	; 0x01


		convert_and_shift_directions(temp++, temp++);
 536:	29 81       	ldd	r18, Y+1	; 0x01
 538:	3a 81       	ldd	r19, Y+2	; 0x02
 53a:	c9 01       	movw	r24, r18
 53c:	02 96       	adiw	r24, 0x02	; 2
 53e:	89 83       	std	Y+1, r24	; 0x01
 540:	9a 83       	std	Y+2, r25	; 0x02
 542:	89 81       	ldd	r24, Y+1	; 0x01
 544:	9a 81       	ldd	r25, Y+2	; 0x02
 546:	ac 01       	movw	r20, r24
 548:	4e 5f       	subi	r20, 0xFE	; 254
 54a:	5f 4f       	sbci	r21, 0xFF	; 255
 54c:	49 83       	std	Y+1, r20	; 0x01
 54e:	5a 83       	std	Y+2, r21	; 0x02
 550:	b9 01       	movw	r22, r18
 552:	0e 94 9c 03 	call	0x738	; 0x738 <convert_and_shift_directions>
		
		convert_and_shift_directions(temp++, temp++);
 556:	29 81       	ldd	r18, Y+1	; 0x01
 558:	3a 81       	ldd	r19, Y+2	; 0x02
 55a:	c9 01       	movw	r24, r18
 55c:	02 96       	adiw	r24, 0x02	; 2
 55e:	89 83       	std	Y+1, r24	; 0x01
 560:	9a 83       	std	Y+2, r25	; 0x02
 562:	89 81       	ldd	r24, Y+1	; 0x01
 564:	9a 81       	ldd	r25, Y+2	; 0x02
 566:	ac 01       	movw	r20, r24
 568:	4e 5f       	subi	r20, 0xFE	; 254
 56a:	5f 4f       	sbci	r21, 0xFF	; 255
 56c:	49 83       	std	Y+1, r20	; 0x01
 56e:	5a 83       	std	Y+2, r21	; 0x02
 570:	b9 01       	movw	r22, r18
 572:	0e 94 9c 03 	call	0x738	; 0x738 <convert_and_shift_directions>
		
		convert_and_shift_directions(temp++, temp++);
 576:	29 81       	ldd	r18, Y+1	; 0x01
 578:	3a 81       	ldd	r19, Y+2	; 0x02
 57a:	c9 01       	movw	r24, r18
 57c:	02 96       	adiw	r24, 0x02	; 2
 57e:	89 83       	std	Y+1, r24	; 0x01
 580:	9a 83       	std	Y+2, r25	; 0x02
 582:	89 81       	ldd	r24, Y+1	; 0x01
 584:	9a 81       	ldd	r25, Y+2	; 0x02
 586:	ac 01       	movw	r20, r24
 588:	4e 5f       	subi	r20, 0xFE	; 254
 58a:	5f 4f       	sbci	r21, 0xFF	; 255
 58c:	49 83       	std	Y+1, r20	; 0x01
 58e:	5a 83       	std	Y+2, r21	; 0x02
 590:	b9 01       	movw	r22, r18
 592:	0e 94 9c 03 	call	0x738	; 0x738 <convert_and_shift_directions>
		
		convert_and_shift_directions(temp++, temp++);
 596:	29 81       	ldd	r18, Y+1	; 0x01
 598:	3a 81       	ldd	r19, Y+2	; 0x02
 59a:	c9 01       	movw	r24, r18
 59c:	02 96       	adiw	r24, 0x02	; 2
 59e:	89 83       	std	Y+1, r24	; 0x01
 5a0:	9a 83       	std	Y+2, r25	; 0x02
 5a2:	89 81       	ldd	r24, Y+1	; 0x01
 5a4:	9a 81       	ldd	r25, Y+2	; 0x02
 5a6:	ac 01       	movw	r20, r24
 5a8:	4e 5f       	subi	r20, 0xFE	; 254
 5aa:	5f 4f       	sbci	r21, 0xFF	; 255
 5ac:	49 83       	std	Y+1, r20	; 0x01
 5ae:	5a 83       	std	Y+2, r21	; 0x02
 5b0:	b9 01       	movw	r22, r18
 5b2:	0e 94 9c 03 	call	0x738	; 0x738 <convert_and_shift_directions>
		
		convert_and_shift_directions(temp++, temp++);
 5b6:	29 81       	ldd	r18, Y+1	; 0x01
 5b8:	3a 81       	ldd	r19, Y+2	; 0x02
 5ba:	c9 01       	movw	r24, r18
 5bc:	02 96       	adiw	r24, 0x02	; 2
 5be:	89 83       	std	Y+1, r24	; 0x01
 5c0:	9a 83       	std	Y+2, r25	; 0x02
 5c2:	89 81       	ldd	r24, Y+1	; 0x01
 5c4:	9a 81       	ldd	r25, Y+2	; 0x02
 5c6:	ac 01       	movw	r20, r24
 5c8:	4e 5f       	subi	r20, 0xFE	; 254
 5ca:	5f 4f       	sbci	r21, 0xFF	; 255
 5cc:	49 83       	std	Y+1, r20	; 0x01
 5ce:	5a 83       	std	Y+2, r21	; 0x02
 5d0:	b9 01       	movw	r22, r18
 5d2:	0e 94 9c 03 	call	0x738	; 0x738 <convert_and_shift_directions>
		
		convert_and_shift_directions(temp++, temp++);
 5d6:	29 81       	ldd	r18, Y+1	; 0x01
 5d8:	3a 81       	ldd	r19, Y+2	; 0x02
 5da:	c9 01       	movw	r24, r18
 5dc:	02 96       	adiw	r24, 0x02	; 2
 5de:	89 83       	std	Y+1, r24	; 0x01
 5e0:	9a 83       	std	Y+2, r25	; 0x02
 5e2:	89 81       	ldd	r24, Y+1	; 0x01
 5e4:	9a 81       	ldd	r25, Y+2	; 0x02
 5e6:	ac 01       	movw	r20, r24
 5e8:	4e 5f       	subi	r20, 0xFE	; 254
 5ea:	5f 4f       	sbci	r21, 0xFF	; 255
 5ec:	49 83       	std	Y+1, r20	; 0x01
 5ee:	5a 83       	std	Y+2, r21	; 0x02
 5f0:	b9 01       	movw	r22, r18
 5f2:	0e 94 9c 03 	call	0x738	; 0x738 <convert_and_shift_directions>
		
		convert_and_shift_directions(temp++, temp++);
 5f6:	29 81       	ldd	r18, Y+1	; 0x01
 5f8:	3a 81       	ldd	r19, Y+2	; 0x02
 5fa:	c9 01       	movw	r24, r18
 5fc:	02 96       	adiw	r24, 0x02	; 2
 5fe:	89 83       	std	Y+1, r24	; 0x01
 600:	9a 83       	std	Y+2, r25	; 0x02
 602:	89 81       	ldd	r24, Y+1	; 0x01
 604:	9a 81       	ldd	r25, Y+2	; 0x02
 606:	ac 01       	movw	r20, r24
 608:	4e 5f       	subi	r20, 0xFE	; 254
 60a:	5f 4f       	sbci	r21, 0xFF	; 255
 60c:	49 83       	std	Y+1, r20	; 0x01
 60e:	5a 83       	std	Y+2, r21	; 0x02
 610:	b9 01       	movw	r22, r18
 612:	0e 94 9c 03 	call	0x738	; 0x738 <convert_and_shift_directions>
		
		convert_and_shift_directions(temp++, temp++);
 616:	29 81       	ldd	r18, Y+1	; 0x01
 618:	3a 81       	ldd	r19, Y+2	; 0x02
 61a:	c9 01       	movw	r24, r18
 61c:	02 96       	adiw	r24, 0x02	; 2
 61e:	89 83       	std	Y+1, r24	; 0x01
 620:	9a 83       	std	Y+2, r25	; 0x02
 622:	89 81       	ldd	r24, Y+1	; 0x01
 624:	9a 81       	ldd	r25, Y+2	; 0x02
 626:	ac 01       	movw	r20, r24
 628:	4e 5f       	subi	r20, 0xFE	; 254
 62a:	5f 4f       	sbci	r21, 0xFF	; 255
 62c:	49 83       	std	Y+1, r20	; 0x01
 62e:	5a 83       	std	Y+2, r21	; 0x02
 630:	b9 01       	movw	r22, r18
 632:	0e 94 9c 03 	call	0x738	; 0x738 <convert_and_shift_directions>
		
		convert_and_shift_directions(temp++, temp++);
 636:	29 81       	ldd	r18, Y+1	; 0x01
 638:	3a 81       	ldd	r19, Y+2	; 0x02
 63a:	c9 01       	movw	r24, r18
 63c:	02 96       	adiw	r24, 0x02	; 2
 63e:	89 83       	std	Y+1, r24	; 0x01
 640:	9a 83       	std	Y+2, r25	; 0x02
 642:	89 81       	ldd	r24, Y+1	; 0x01
 644:	9a 81       	ldd	r25, Y+2	; 0x02
 646:	ac 01       	movw	r20, r24
 648:	4e 5f       	subi	r20, 0xFE	; 254
 64a:	5f 4f       	sbci	r21, 0xFF	; 255
 64c:	49 83       	std	Y+1, r20	; 0x01
 64e:	5a 83       	std	Y+2, r21	; 0x02
 650:	b9 01       	movw	r22, r18
 652:	0e 94 9c 03 	call	0x738	; 0x738 <convert_and_shift_directions>
		
		convert_and_shift_directions(temp++, temp++);
 656:	29 81       	ldd	r18, Y+1	; 0x01
 658:	3a 81       	ldd	r19, Y+2	; 0x02
 65a:	c9 01       	movw	r24, r18
 65c:	02 96       	adiw	r24, 0x02	; 2
 65e:	89 83       	std	Y+1, r24	; 0x01
 660:	9a 83       	std	Y+2, r25	; 0x02
 662:	89 81       	ldd	r24, Y+1	; 0x01
 664:	9a 81       	ldd	r25, Y+2	; 0x02
 666:	ac 01       	movw	r20, r24
 668:	4e 5f       	subi	r20, 0xFE	; 254
 66a:	5f 4f       	sbci	r21, 0xFF	; 255
 66c:	49 83       	std	Y+1, r20	; 0x01
 66e:	5a 83       	std	Y+2, r21	; 0x02
 670:	b9 01       	movw	r22, r18
 672:	0e 94 9c 03 	call	0x738	; 0x738 <convert_and_shift_directions>
		
		convert_and_shift_directions(temp++, temp++);
 676:	29 81       	ldd	r18, Y+1	; 0x01
 678:	3a 81       	ldd	r19, Y+2	; 0x02
 67a:	c9 01       	movw	r24, r18
 67c:	02 96       	adiw	r24, 0x02	; 2
 67e:	89 83       	std	Y+1, r24	; 0x01
 680:	9a 83       	std	Y+2, r25	; 0x02
 682:	89 81       	ldd	r24, Y+1	; 0x01
 684:	9a 81       	ldd	r25, Y+2	; 0x02
 686:	ac 01       	movw	r20, r24
 688:	4e 5f       	subi	r20, 0xFE	; 254
 68a:	5f 4f       	sbci	r21, 0xFF	; 255
 68c:	49 83       	std	Y+1, r20	; 0x01
 68e:	5a 83       	std	Y+2, r21	; 0x02
 690:	b9 01       	movw	r22, r18
 692:	0e 94 9c 03 	call	0x738	; 0x738 <convert_and_shift_directions>
		
		convert_and_shift_directions(temp++, temp++);
 696:	29 81       	ldd	r18, Y+1	; 0x01
 698:	3a 81       	ldd	r19, Y+2	; 0x02
 69a:	c9 01       	movw	r24, r18
 69c:	02 96       	adiw	r24, 0x02	; 2
 69e:	89 83       	std	Y+1, r24	; 0x01
 6a0:	9a 83       	std	Y+2, r25	; 0x02
 6a2:	89 81       	ldd	r24, Y+1	; 0x01
 6a4:	9a 81       	ldd	r25, Y+2	; 0x02
 6a6:	ac 01       	movw	r20, r24
 6a8:	4e 5f       	subi	r20, 0xFE	; 254
 6aa:	5f 4f       	sbci	r21, 0xFF	; 255
 6ac:	49 83       	std	Y+1, r20	; 0x01
 6ae:	5a 83       	std	Y+2, r21	; 0x02
 6b0:	b9 01       	movw	r22, r18
 6b2:	0e 94 9c 03 	call	0x738	; 0x738 <convert_and_shift_directions>
		
		convert_and_shift_directions(temp++, temp++);
 6b6:	29 81       	ldd	r18, Y+1	; 0x01
 6b8:	3a 81       	ldd	r19, Y+2	; 0x02
 6ba:	c9 01       	movw	r24, r18
 6bc:	02 96       	adiw	r24, 0x02	; 2
 6be:	89 83       	std	Y+1, r24	; 0x01
 6c0:	9a 83       	std	Y+2, r25	; 0x02
 6c2:	89 81       	ldd	r24, Y+1	; 0x01
 6c4:	9a 81       	ldd	r25, Y+2	; 0x02
 6c6:	ac 01       	movw	r20, r24
 6c8:	4e 5f       	subi	r20, 0xFE	; 254
 6ca:	5f 4f       	sbci	r21, 0xFF	; 255
 6cc:	49 83       	std	Y+1, r20	; 0x01
 6ce:	5a 83       	std	Y+2, r21	; 0x02
 6d0:	b9 01       	movw	r22, r18
 6d2:	0e 94 9c 03 	call	0x738	; 0x738 <convert_and_shift_directions>
		
		convert_and_shift_directions(temp++, temp++);
 6d6:	29 81       	ldd	r18, Y+1	; 0x01
 6d8:	3a 81       	ldd	r19, Y+2	; 0x02
 6da:	c9 01       	movw	r24, r18
 6dc:	02 96       	adiw	r24, 0x02	; 2
 6de:	89 83       	std	Y+1, r24	; 0x01
 6e0:	9a 83       	std	Y+2, r25	; 0x02
 6e2:	89 81       	ldd	r24, Y+1	; 0x01
 6e4:	9a 81       	ldd	r25, Y+2	; 0x02
 6e6:	ac 01       	movw	r20, r24
 6e8:	4e 5f       	subi	r20, 0xFE	; 254
 6ea:	5f 4f       	sbci	r21, 0xFF	; 255
 6ec:	49 83       	std	Y+1, r20	; 0x01
 6ee:	5a 83       	std	Y+2, r21	; 0x02
 6f0:	b9 01       	movw	r22, r18
 6f2:	0e 94 9c 03 	call	0x738	; 0x738 <convert_and_shift_directions>
		
		convert_and_shift_directions(temp++, temp++);
 6f6:	29 81       	ldd	r18, Y+1	; 0x01
 6f8:	3a 81       	ldd	r19, Y+2	; 0x02
 6fa:	c9 01       	movw	r24, r18
 6fc:	02 96       	adiw	r24, 0x02	; 2
 6fe:	89 83       	std	Y+1, r24	; 0x01
 700:	9a 83       	std	Y+2, r25	; 0x02
 702:	89 81       	ldd	r24, Y+1	; 0x01
 704:	9a 81       	ldd	r25, Y+2	; 0x02
 706:	ac 01       	movw	r20, r24
 708:	4e 5f       	subi	r20, 0xFE	; 254
 70a:	5f 4f       	sbci	r21, 0xFF	; 255
 70c:	49 83       	std	Y+1, r20	; 0x01
 70e:	5a 83       	std	Y+2, r21	; 0x02
 710:	b9 01       	movw	r22, r18
 712:	0e 94 9c 03 	call	0x738	; 0x738 <convert_and_shift_directions>
		
		convert_and_shift_directions(temp++, temp++);
 716:	29 81       	ldd	r18, Y+1	; 0x01
 718:	3a 81       	ldd	r19, Y+2	; 0x02
 71a:	c9 01       	movw	r24, r18
 71c:	02 96       	adiw	r24, 0x02	; 2
 71e:	89 83       	std	Y+1, r24	; 0x01
 720:	9a 83       	std	Y+2, r25	; 0x02
 722:	89 81       	ldd	r24, Y+1	; 0x01
 724:	9a 81       	ldd	r25, Y+2	; 0x02
 726:	ac 01       	movw	r20, r24
 728:	4e 5f       	subi	r20, 0xFE	; 254
 72a:	5f 4f       	sbci	r21, 0xFF	; 255
 72c:	49 83       	std	Y+1, r20	; 0x01
 72e:	5a 83       	std	Y+2, r21	; 0x02
 730:	b9 01       	movw	r22, r18
 732:	0e 94 9c 03 	call	0x738	; 0x738 <convert_and_shift_directions>
	}
 736:	6b ce       	rjmp	.-810    	; 0x40e <__LOCK_REGION_LENGTH__+0xe>

00000738 <convert_and_shift_directions>:
/*
 * The input values of the parameters are the summarized value for both axis, from -255 to +255, they are overwritten by the output
 * The output values of the parameters are depending on the used scaling of the lookup table
 */
void convert_and_shift_directions(int16_t* x, int16_t* y)
{
 738:	cf 92       	push	r12
 73a:	df 92       	push	r13
 73c:	ef 92       	push	r14
 73e:	ff 92       	push	r15
 740:	cf 93       	push	r28
 742:	df 93       	push	r29
 744:	cd b7       	in	r28, 0x3d	; 61
 746:	de b7       	in	r29, 0x3e	; 62
 748:	a8 97       	sbiw	r28, 0x28	; 40
 74a:	cd bf       	out	0x3d, r28	; 61
 74c:	de bf       	out	0x3e, r29	; 62
 74e:	8d a3       	std	Y+37, r24	; 0x25
 750:	9e a3       	std	Y+38, r25	; 0x26
 752:	6f a3       	std	Y+39, r22	; 0x27
 754:	78 a7       	std	Y+40, r23	; 0x28
	int8_t eighth = 0;				// The eighth looking from top in clockwise rotation 2, 0, 4, 6, 7, 5, 1 & 3
 756:	19 82       	std	Y+1, r1	; 0x01
	uint16_t angle;					// The angle between x and y
	uint16_t length;				// The calculated width of the current shifting eighth or the length of the vector


	// Check parameter because this is called externally
	if (0 == x || 0 == y)
 758:	8d a1       	ldd	r24, Y+37	; 0x25
 75a:	9e a1       	ldd	r25, Y+38	; 0x26
 75c:	89 2b       	or	r24, r25
 75e:	09 f4       	brne	.+2      	; 0x762 <convert_and_shift_directions+0x2a>
 760:	02 c2       	rjmp	.+1028   	; 0xb66 <__EEPROM_REGION_LENGTH__+0x366>
 762:	8f a1       	ldd	r24, Y+39	; 0x27
 764:	98 a5       	ldd	r25, Y+40	; 0x28
 766:	89 2b       	or	r24, r25
 768:	09 f4       	brne	.+2      	; 0x76c <convert_and_shift_directions+0x34>
 76a:	fd c1       	rjmp	.+1018   	; 0xb66 <__EEPROM_REGION_LENGTH__+0x366>
		return;
	}


	// Get the eighth of the current position and only handle the eighth where x & y are greater than 0 and x is greater than y
	if (*x < 0)
 76c:	8d a1       	ldd	r24, Y+37	; 0x25
 76e:	9e a1       	ldd	r25, Y+38	; 0x26
 770:	fc 01       	movw	r30, r24
 772:	80 81       	ld	r24, Z
 774:	91 81       	ldd	r25, Z+1	; 0x01
 776:	99 23       	and	r25, r25
 778:	5c f4       	brge	.+22     	; 0x790 <convert_and_shift_directions+0x58>
	{
		eighth |= 1;
 77a:	89 81       	ldd	r24, Y+1	; 0x01
 77c:	81 60       	ori	r24, 0x01	; 1
 77e:	89 83       	std	Y+1, r24	; 0x01

		simple_x = -*x;
 780:	8d a1       	ldd	r24, Y+37	; 0x25
 782:	9e a1       	ldd	r25, Y+38	; 0x26
 784:	fc 01       	movw	r30, r24
 786:	80 81       	ld	r24, Z
 788:	91 81       	ldd	r25, Z+1	; 0x01
 78a:	81 95       	neg	r24
 78c:	8a 83       	std	Y+2, r24	; 0x02
 78e:	06 c0       	rjmp	.+12     	; 0x79c <convert_and_shift_directions+0x64>
	}
	else
	{
		simple_x = *x;
 790:	8d a1       	ldd	r24, Y+37	; 0x25
 792:	9e a1       	ldd	r25, Y+38	; 0x26
 794:	fc 01       	movw	r30, r24
 796:	80 81       	ld	r24, Z
 798:	91 81       	ldd	r25, Z+1	; 0x01
 79a:	8a 83       	std	Y+2, r24	; 0x02
	}

	if (*y < 0)
 79c:	8f a1       	ldd	r24, Y+39	; 0x27
 79e:	98 a5       	ldd	r25, Y+40	; 0x28
 7a0:	fc 01       	movw	r30, r24
 7a2:	80 81       	ld	r24, Z
 7a4:	91 81       	ldd	r25, Z+1	; 0x01
 7a6:	99 23       	and	r25, r25
 7a8:	5c f4       	brge	.+22     	; 0x7c0 <convert_and_shift_directions+0x88>
	{
		eighth |= 4;
 7aa:	89 81       	ldd	r24, Y+1	; 0x01
 7ac:	84 60       	ori	r24, 0x04	; 4
 7ae:	89 83       	std	Y+1, r24	; 0x01

		simple_y = -*y;
 7b0:	8f a1       	ldd	r24, Y+39	; 0x27
 7b2:	98 a5       	ldd	r25, Y+40	; 0x28
 7b4:	fc 01       	movw	r30, r24
 7b6:	80 81       	ld	r24, Z
 7b8:	91 81       	ldd	r25, Z+1	; 0x01
 7ba:	81 95       	neg	r24
 7bc:	8b 83       	std	Y+3, r24	; 0x03
 7be:	06 c0       	rjmp	.+12     	; 0x7cc <convert_and_shift_directions+0x94>
	}
	else
	{
		simple_y = *y;
 7c0:	8f a1       	ldd	r24, Y+39	; 0x27
 7c2:	98 a5       	ldd	r25, Y+40	; 0x28
 7c4:	fc 01       	movw	r30, r24
 7c6:	80 81       	ld	r24, Z
 7c8:	91 81       	ldd	r25, Z+1	; 0x01
 7ca:	8b 83       	std	Y+3, r24	; 0x03
	}

	if (simple_y > simple_x)
 7cc:	9b 81       	ldd	r25, Y+3	; 0x03
 7ce:	8a 81       	ldd	r24, Y+2	; 0x02
 7d0:	89 17       	cp	r24, r25
 7d2:	78 f4       	brcc	.+30     	; 0x7f2 <convert_and_shift_directions+0xba>
	{
		eighth |= 2;
 7d4:	89 81       	ldd	r24, Y+1	; 0x01
 7d6:	82 60       	ori	r24, 0x02	; 2
 7d8:	89 83       	std	Y+1, r24	; 0x01

		simple_y ^= simple_x;
 7da:	9b 81       	ldd	r25, Y+3	; 0x03
 7dc:	8a 81       	ldd	r24, Y+2	; 0x02
 7de:	89 27       	eor	r24, r25
 7e0:	8b 83       	std	Y+3, r24	; 0x03
		simple_x ^= simple_y;
 7e2:	9a 81       	ldd	r25, Y+2	; 0x02
 7e4:	8b 81       	ldd	r24, Y+3	; 0x03
 7e6:	89 27       	eor	r24, r25
 7e8:	8a 83       	std	Y+2, r24	; 0x02
		simple_y ^= simple_x;
 7ea:	9b 81       	ldd	r25, Y+3	; 0x03
 7ec:	8a 81       	ldd	r24, Y+2	; 0x02
 7ee:	89 27       	eor	r24, r25
 7f0:	8b 83       	std	Y+3, r24	; 0x03


	// Get the original angle in degree of the considered eighth
//	angle = simple_y * 45 / simple_x;											// Linear behavior of the lower axis compared to the higher one
//	angle = simple_y * 45 / (simple_y + simple_x);								// Some experimental summarized proportion
	angle = pgm_read_byte(&lookuptable_arctan[(simple_y << 6) / simple_x]);		// The real squared to circular angle
 7f2:	8b 81       	ldd	r24, Y+3	; 0x03
 7f4:	88 2f       	mov	r24, r24
 7f6:	90 e0       	ldi	r25, 0x00	; 0
 7f8:	00 24       	eor	r0, r0
 7fa:	96 95       	lsr	r25
 7fc:	87 95       	ror	r24
 7fe:	07 94       	ror	r0
 800:	96 95       	lsr	r25
 802:	87 95       	ror	r24
 804:	07 94       	ror	r0
 806:	98 2f       	mov	r25, r24
 808:	80 2d       	mov	r24, r0
 80a:	2a 81       	ldd	r18, Y+2	; 0x02
 80c:	22 2f       	mov	r18, r18
 80e:	30 e0       	ldi	r19, 0x00	; 0
 810:	b9 01       	movw	r22, r18
 812:	0e 94 f1 06 	call	0xde2	; 0xde2 <__divmodhi4>
 816:	cb 01       	movw	r24, r22
 818:	84 59       	subi	r24, 0x94	; 148
 81a:	9c 4f       	sbci	r25, 0xFC	; 252
 81c:	88 87       	std	Y+8, r24	; 0x08
 81e:	99 87       	std	Y+9, r25	; 0x09
 820:	88 85       	ldd	r24, Y+8	; 0x08
 822:	99 85       	ldd	r25, Y+9	; 0x09
 824:	fc 01       	movw	r30, r24
 826:	84 91       	lpm	r24, Z
 828:	8a 87       	std	Y+10, r24	; 0x0a
 82a:	8a 85       	ldd	r24, Y+10	; 0x0a
 82c:	88 2f       	mov	r24, r24
 82e:	90 e0       	ldi	r25, 0x00	; 0
 830:	8c 83       	std	Y+4, r24	; 0x04
 832:	9d 83       	std	Y+5, r25	; 0x05


	// Now shift the angle depending on the given eight directions

	// Shift the representation of the eighth from the mirrored perspective to a clockwise orientation for easier shifting
	eighth = pgm_read_byte(&lookuptable_position_mirrowed_to_clockwise[eighth]);
 834:	89 81       	ldd	r24, Y+1	; 0x01
 836:	08 2e       	mov	r0, r24
 838:	00 0c       	add	r0, r0
 83a:	99 0b       	sbc	r25, r25
 83c:	83 55       	subi	r24, 0x53	; 83
 83e:	9c 4f       	sbci	r25, 0xFC	; 252
 840:	8b 87       	std	Y+11, r24	; 0x0b
 842:	9c 87       	std	Y+12, r25	; 0x0c
 844:	8b 85       	ldd	r24, Y+11	; 0x0b
 846:	9c 85       	ldd	r25, Y+12	; 0x0c
 848:	fc 01       	movw	r30, r24
 84a:	84 91       	lpm	r24, Z
 84c:	8d 87       	std	Y+13, r24	; 0x0d
 84e:	8d 85       	ldd	r24, Y+13	; 0x0d
 850:	89 83       	std	Y+1, r24	; 0x01


	// Normalizing the direction for all eighth in a clockwise direction
	if (eighth % 2)
 852:	89 81       	ldd	r24, Y+1	; 0x01
 854:	81 70       	andi	r24, 0x01	; 1
 856:	88 23       	and	r24, r24
 858:	51 f0       	breq	.+20     	; 0x86e <__EEPROM_REGION_LENGTH__+0x6e>
	{
		angle = 45 - angle;
 85a:	2d e2       	ldi	r18, 0x2D	; 45
 85c:	30 e0       	ldi	r19, 0x00	; 0
 85e:	8c 81       	ldd	r24, Y+4	; 0x04
 860:	9d 81       	ldd	r25, Y+5	; 0x05
 862:	a9 01       	movw	r20, r18
 864:	48 1b       	sub	r20, r24
 866:	59 0b       	sbc	r21, r25
 868:	ca 01       	movw	r24, r20
 86a:	8c 83       	std	Y+4, r24	; 0x04
 86c:	9d 83       	std	Y+5, r25	; 0x05
	}


	// Handle the possible overlap of 360°
	if (eighth == 7)
 86e:	89 81       	ldd	r24, Y+1	; 0x01
 870:	87 30       	cpi	r24, 0x07	; 7
 872:	49 f4       	brne	.+18     	; 0x886 <__EEPROM_REGION_LENGTH__+0x86>
	{
		length = 360 + shifted_directions[0];
 874:	80 91 00 20 	lds	r24, 0x2000	; 0x802000 <__DATA_REGION_ORIGIN__>
 878:	90 91 01 20 	lds	r25, 0x2001	; 0x802001 <__DATA_REGION_ORIGIN__+0x1>
 87c:	88 59       	subi	r24, 0x98	; 152
 87e:	9e 4f       	sbci	r25, 0xFE	; 254
 880:	8e 83       	std	Y+6, r24	; 0x06
 882:	9f 83       	std	Y+7, r25	; 0x07
 884:	0e c0       	rjmp	.+28     	; 0x8a2 <__EEPROM_REGION_LENGTH__+0xa2>
	}
	else
	{
		length = shifted_directions[eighth + 1];
 886:	89 81       	ldd	r24, Y+1	; 0x01
 888:	08 2e       	mov	r0, r24
 88a:	00 0c       	add	r0, r0
 88c:	99 0b       	sbc	r25, r25
 88e:	01 96       	adiw	r24, 0x01	; 1
 890:	88 0f       	add	r24, r24
 892:	99 1f       	adc	r25, r25
 894:	80 50       	subi	r24, 0x00	; 0
 896:	90 4e       	sbci	r25, 0xE0	; 224
 898:	fc 01       	movw	r30, r24
 89a:	80 81       	ld	r24, Z
 89c:	91 81       	ldd	r25, Z+1	; 0x01
 89e:	8e 83       	std	Y+6, r24	; 0x06
 8a0:	9f 83       	std	Y+7, r25	; 0x07
	}

	length -=  shifted_directions[eighth];
 8a2:	89 81       	ldd	r24, Y+1	; 0x01
 8a4:	08 2e       	mov	r0, r24
 8a6:	00 0c       	add	r0, r0
 8a8:	99 0b       	sbc	r25, r25
 8aa:	88 0f       	add	r24, r24
 8ac:	99 1f       	adc	r25, r25
 8ae:	80 50       	subi	r24, 0x00	; 0
 8b0:	90 4e       	sbci	r25, 0xE0	; 224
 8b2:	fc 01       	movw	r30, r24
 8b4:	80 81       	ld	r24, Z
 8b6:	91 81       	ldd	r25, Z+1	; 0x01
 8b8:	2e 81       	ldd	r18, Y+6	; 0x06
 8ba:	3f 81       	ldd	r19, Y+7	; 0x07
 8bc:	a9 01       	movw	r20, r18
 8be:	48 1b       	sub	r20, r24
 8c0:	59 0b       	sbc	r21, r25
 8c2:	ca 01       	movw	r24, r20
 8c4:	8e 83       	std	Y+6, r24	; 0x06
 8c6:	9f 83       	std	Y+7, r25	; 0x07


	// Calculate the new shifted angle within its eighth and its position (still clockwise)
	angle = angle * length / 45;
 8c8:	2c 81       	ldd	r18, Y+4	; 0x04
 8ca:	3d 81       	ldd	r19, Y+5	; 0x05
 8cc:	8e 81       	ldd	r24, Y+6	; 0x06
 8ce:	9f 81       	ldd	r25, Y+7	; 0x07
 8d0:	28 9f       	mul	r18, r24
 8d2:	a0 01       	movw	r20, r0
 8d4:	29 9f       	mul	r18, r25
 8d6:	50 0d       	add	r21, r0
 8d8:	38 9f       	mul	r19, r24
 8da:	50 0d       	add	r21, r0
 8dc:	11 24       	eor	r1, r1
 8de:	9a 01       	movw	r18, r20
 8e0:	a3 e8       	ldi	r26, 0x83	; 131
 8e2:	bd e2       	ldi	r27, 0x2D	; 45
 8e4:	0e 94 05 07 	call	0xe0a	; 0xe0a <__umulhisi3>
 8e8:	96 95       	lsr	r25
 8ea:	87 95       	ror	r24
 8ec:	96 95       	lsr	r25
 8ee:	87 95       	ror	r24
 8f0:	96 95       	lsr	r25
 8f2:	87 95       	ror	r24
 8f4:	8c 83       	std	Y+4, r24	; 0x04
 8f6:	9d 83       	std	Y+5, r25	; 0x05
	angle += shifted_directions[eighth];
 8f8:	89 81       	ldd	r24, Y+1	; 0x01
 8fa:	08 2e       	mov	r0, r24
 8fc:	00 0c       	add	r0, r0
 8fe:	99 0b       	sbc	r25, r25
 900:	88 0f       	add	r24, r24
 902:	99 1f       	adc	r25, r25
 904:	80 50       	subi	r24, 0x00	; 0
 906:	90 4e       	sbci	r25, 0xE0	; 224
 908:	fc 01       	movw	r30, r24
 90a:	80 81       	ld	r24, Z
 90c:	91 81       	ldd	r25, Z+1	; 0x01
 90e:	2c 81       	ldd	r18, Y+4	; 0x04
 910:	3d 81       	ldd	r19, Y+5	; 0x05
 912:	82 0f       	add	r24, r18
 914:	93 1f       	adc	r25, r19
 916:	8c 83       	std	Y+4, r24	; 0x04
 918:	9d 83       	std	Y+5, r25	; 0x05

	eighth = angle / 45;
 91a:	8c 81       	ldd	r24, Y+4	; 0x04
 91c:	9d 81       	ldd	r25, Y+5	; 0x05
 91e:	9c 01       	movw	r18, r24
 920:	a3 e8       	ldi	r26, 0x83	; 131
 922:	bd e2       	ldi	r27, 0x2D	; 45
 924:	0e 94 05 07 	call	0xe0a	; 0xe0a <__umulhisi3>
 928:	96 95       	lsr	r25
 92a:	87 95       	ror	r24
 92c:	96 95       	lsr	r25
 92e:	87 95       	ror	r24
 930:	96 95       	lsr	r25
 932:	87 95       	ror	r24
 934:	89 83       	std	Y+1, r24	; 0x01
	angle %= 45;
 936:	4c 81       	ldd	r20, Y+4	; 0x04
 938:	5d 81       	ldd	r21, Y+5	; 0x05
 93a:	9a 01       	movw	r18, r20
 93c:	a3 e8       	ldi	r26, 0x83	; 131
 93e:	bd e2       	ldi	r27, 0x2D	; 45
 940:	0e 94 05 07 	call	0xe0a	; 0xe0a <__umulhisi3>
 944:	9c 01       	movw	r18, r24
 946:	36 95       	lsr	r19
 948:	27 95       	ror	r18
 94a:	36 95       	lsr	r19
 94c:	27 95       	ror	r18
 94e:	36 95       	lsr	r19
 950:	27 95       	ror	r18
 952:	6d e2       	ldi	r22, 0x2D	; 45
 954:	62 9f       	mul	r22, r18
 956:	c0 01       	movw	r24, r0
 958:	63 9f       	mul	r22, r19
 95a:	90 0d       	add	r25, r0
 95c:	11 24       	eor	r1, r1
 95e:	9a 01       	movw	r18, r20
 960:	28 1b       	sub	r18, r24
 962:	39 0b       	sbc	r19, r25
 964:	c9 01       	movw	r24, r18
 966:	8c 83       	std	Y+4, r24	; 0x04
 968:	9d 83       	std	Y+5, r25	; 0x05


	// De-normalizing the direction to get the mirroring effects back
	if (eighth % 2)
 96a:	89 81       	ldd	r24, Y+1	; 0x01
 96c:	81 70       	andi	r24, 0x01	; 1
 96e:	88 23       	and	r24, r24
 970:	51 f0       	breq	.+20     	; 0x986 <__EEPROM_REGION_LENGTH__+0x186>
	{
		angle = 45 - angle;
 972:	2d e2       	ldi	r18, 0x2D	; 45
 974:	30 e0       	ldi	r19, 0x00	; 0
 976:	8c 81       	ldd	r24, Y+4	; 0x04
 978:	9d 81       	ldd	r25, Y+5	; 0x05
 97a:	a9 01       	movw	r20, r18
 97c:	48 1b       	sub	r20, r24
 97e:	59 0b       	sbc	r21, r25
 980:	ca 01       	movw	r24, r20
 982:	8c 83       	std	Y+4, r24	; 0x04
 984:	9d 83       	std	Y+5, r25	; 0x05
	}


	// Calculate the length of the vector
	length = simple_x;		// Linear compared to the axis with the higher value
 986:	8a 81       	ldd	r24, Y+2	; 0x02
 988:	88 2f       	mov	r24, r24
 98a:	90 e0       	ldi	r25, 0x00	; 0
 98c:	8e 83       	std	Y+6, r24	; 0x06
 98e:	9f 83       	std	Y+7, r25	; 0x07
//	length = sqrt((uint32_t) simple_x * simple_x + (uint32_t) simple_y * simple_y);		// More precise and the correct value for the squared to circular transfoprmation, but way to slow


	// Update the position depending from the angle and length
	precise_x = pgm_read_float(&lookuptable_cos_and_sin[angle][0]) * length;
 990:	8c 81       	ldd	r24, Y+4	; 0x04
 992:	9d 81       	ldd	r25, Y+5	; 0x05
 994:	88 0f       	add	r24, r24
 996:	99 1f       	adc	r25, r25
 998:	88 0f       	add	r24, r24
 99a:	99 1f       	adc	r25, r25
 99c:	88 0f       	add	r24, r24
 99e:	99 1f       	adc	r25, r25
 9a0:	84 50       	subi	r24, 0x04	; 4
 9a2:	9e 4f       	sbci	r25, 0xFE	; 254
 9a4:	8e 87       	std	Y+14, r24	; 0x0e
 9a6:	9f 87       	std	Y+15, r25	; 0x0f
 9a8:	8e 85       	ldd	r24, Y+14	; 0x0e
 9aa:	9f 85       	ldd	r25, Y+15	; 0x0f
 9ac:	9c 01       	movw	r18, r24
 9ae:	f9 01       	movw	r30, r18
 9b0:	85 91       	lpm	r24, Z+
 9b2:	95 91       	lpm	r25, Z+
 9b4:	a5 91       	lpm	r26, Z+
 9b6:	b4 91       	lpm	r27, Z
 9b8:	9f 01       	movw	r18, r30
 9ba:	88 8b       	std	Y+16, r24	; 0x10
 9bc:	99 8b       	std	Y+17, r25	; 0x11
 9be:	aa 8b       	std	Y+18, r26	; 0x12
 9c0:	bb 8b       	std	Y+19, r27	; 0x13
 9c2:	2e 87       	std	Y+14, r18	; 0x0e
 9c4:	3f 87       	std	Y+15, r19	; 0x0f
 9c6:	c8 88       	ldd	r12, Y+16	; 0x10
 9c8:	d9 88       	ldd	r13, Y+17	; 0x11
 9ca:	ea 88       	ldd	r14, Y+18	; 0x12
 9cc:	fb 88       	ldd	r15, Y+19	; 0x13
 9ce:	8e 81       	ldd	r24, Y+6	; 0x06
 9d0:	9f 81       	ldd	r25, Y+7	; 0x07
 9d2:	cc 01       	movw	r24, r24
 9d4:	a0 e0       	ldi	r26, 0x00	; 0
 9d6:	b0 e0       	ldi	r27, 0x00	; 0
 9d8:	bc 01       	movw	r22, r24
 9da:	cd 01       	movw	r24, r26
 9dc:	0e 94 f6 05 	call	0xbec	; 0xbec <__floatunsisf>
 9e0:	dc 01       	movw	r26, r24
 9e2:	cb 01       	movw	r24, r22
 9e4:	9c 01       	movw	r18, r24
 9e6:	ad 01       	movw	r20, r26
 9e8:	c7 01       	movw	r24, r14
 9ea:	b6 01       	movw	r22, r12
 9ec:	0e 94 5c 06 	call	0xcb8	; 0xcb8 <__mulsf3>
 9f0:	dc 01       	movw	r26, r24
 9f2:	cb 01       	movw	r24, r22
 9f4:	8c 8b       	std	Y+20, r24	; 0x14
 9f6:	9d 8b       	std	Y+21, r25	; 0x15
 9f8:	ae 8b       	std	Y+22, r26	; 0x16
 9fa:	bf 8b       	std	Y+23, r27	; 0x17
	precise_y = pgm_read_float(&lookuptable_cos_and_sin[angle][1]) * length;
 9fc:	8c 81       	ldd	r24, Y+4	; 0x04
 9fe:	9d 81       	ldd	r25, Y+5	; 0x05
 a00:	88 0f       	add	r24, r24
 a02:	99 1f       	adc	r25, r25
 a04:	88 0f       	add	r24, r24
 a06:	99 1f       	adc	r25, r25
 a08:	88 0f       	add	r24, r24
 a0a:	99 1f       	adc	r25, r25
 a0c:	04 96       	adiw	r24, 0x04	; 4
 a0e:	84 50       	subi	r24, 0x04	; 4
 a10:	9e 4f       	sbci	r25, 0xFE	; 254
 a12:	88 8f       	std	Y+24, r24	; 0x18
 a14:	99 8f       	std	Y+25, r25	; 0x19
 a16:	88 8d       	ldd	r24, Y+24	; 0x18
 a18:	99 8d       	ldd	r25, Y+25	; 0x19
 a1a:	9c 01       	movw	r18, r24
 a1c:	f9 01       	movw	r30, r18
 a1e:	85 91       	lpm	r24, Z+
 a20:	95 91       	lpm	r25, Z+
 a22:	a5 91       	lpm	r26, Z+
 a24:	b4 91       	lpm	r27, Z
 a26:	9f 01       	movw	r18, r30
 a28:	8a 8f       	std	Y+26, r24	; 0x1a
 a2a:	9b 8f       	std	Y+27, r25	; 0x1b
 a2c:	ac 8f       	std	Y+28, r26	; 0x1c
 a2e:	bd 8f       	std	Y+29, r27	; 0x1d
 a30:	28 8f       	std	Y+24, r18	; 0x18
 a32:	39 8f       	std	Y+25, r19	; 0x19
 a34:	ca 8c       	ldd	r12, Y+26	; 0x1a
 a36:	db 8c       	ldd	r13, Y+27	; 0x1b
 a38:	ec 8c       	ldd	r14, Y+28	; 0x1c
 a3a:	fd 8c       	ldd	r15, Y+29	; 0x1d
 a3c:	8e 81       	ldd	r24, Y+6	; 0x06
 a3e:	9f 81       	ldd	r25, Y+7	; 0x07
 a40:	cc 01       	movw	r24, r24
 a42:	a0 e0       	ldi	r26, 0x00	; 0
 a44:	b0 e0       	ldi	r27, 0x00	; 0
 a46:	bc 01       	movw	r22, r24
 a48:	cd 01       	movw	r24, r26
 a4a:	0e 94 f6 05 	call	0xbec	; 0xbec <__floatunsisf>
 a4e:	dc 01       	movw	r26, r24
 a50:	cb 01       	movw	r24, r22
 a52:	9c 01       	movw	r18, r24
 a54:	ad 01       	movw	r20, r26
 a56:	c7 01       	movw	r24, r14
 a58:	b6 01       	movw	r22, r12
 a5a:	0e 94 5c 06 	call	0xcb8	; 0xcb8 <__mulsf3>
 a5e:	dc 01       	movw	r26, r24
 a60:	cb 01       	movw	r24, r22
 a62:	8e 8f       	std	Y+30, r24	; 0x1e
 a64:	9f 8f       	std	Y+31, r25	; 0x1f
 a66:	a8 a3       	std	Y+32, r26	; 0x20
 a68:	b9 a3       	std	Y+33, r27	; 0x21


	// Shift the representation of the eighth from clockwise orientation back to the mirrored perspective for easier handling
	eighth = pgm_read_byte(&lookuptable_position_clockwise_to_mirrowed[eighth]);
 a6a:	89 81       	ldd	r24, Y+1	; 0x01
 a6c:	08 2e       	mov	r0, r24
 a6e:	00 0c       	add	r0, r0
 a70:	99 0b       	sbc	r25, r25
 a72:	8b 54       	subi	r24, 0x4B	; 75
 a74:	9c 4f       	sbci	r25, 0xFC	; 252
 a76:	8a a3       	std	Y+34, r24	; 0x22
 a78:	9b a3       	std	Y+35, r25	; 0x23
 a7a:	8a a1       	ldd	r24, Y+34	; 0x22
 a7c:	9b a1       	ldd	r25, Y+35	; 0x23
 a7e:	fc 01       	movw	r30, r24
 a80:	84 91       	lpm	r24, Z
 a82:	8c a3       	std	Y+36, r24	; 0x24
 a84:	8c a1       	ldd	r24, Y+36	; 0x24
 a86:	89 83       	std	Y+1, r24	; 0x01


	// Handle the mirrored positions
	if (eighth & 2)
 a88:	89 81       	ldd	r24, Y+1	; 0x01
 a8a:	08 2e       	mov	r0, r24
 a8c:	00 0c       	add	r0, r0
 a8e:	99 0b       	sbc	r25, r25
 a90:	82 70       	andi	r24, 0x02	; 2
 a92:	99 27       	eor	r25, r25
 a94:	89 2b       	or	r24, r25
 a96:	e9 f0       	breq	.+58     	; 0xad2 <__EEPROM_REGION_LENGTH__+0x2d2>
	{
		*x = (int16_t) precise_y;
 a98:	6e 8d       	ldd	r22, Y+30	; 0x1e
 a9a:	7f 8d       	ldd	r23, Y+31	; 0x1f
 a9c:	88 a1       	ldd	r24, Y+32	; 0x20
 a9e:	99 a1       	ldd	r25, Y+33	; 0x21
 aa0:	0e 94 c0 05 	call	0xb80	; 0xb80 <__fixsfsi>
 aa4:	dc 01       	movw	r26, r24
 aa6:	cb 01       	movw	r24, r22
 aa8:	9c 01       	movw	r18, r24
 aaa:	8d a1       	ldd	r24, Y+37	; 0x25
 aac:	9e a1       	ldd	r25, Y+38	; 0x26
 aae:	fc 01       	movw	r30, r24
 ab0:	20 83       	st	Z, r18
 ab2:	31 83       	std	Z+1, r19	; 0x01
		*y = (int16_t) precise_x;
 ab4:	6c 89       	ldd	r22, Y+20	; 0x14
 ab6:	7d 89       	ldd	r23, Y+21	; 0x15
 ab8:	8e 89       	ldd	r24, Y+22	; 0x16
 aba:	9f 89       	ldd	r25, Y+23	; 0x17
 abc:	0e 94 c0 05 	call	0xb80	; 0xb80 <__fixsfsi>
 ac0:	dc 01       	movw	r26, r24
 ac2:	cb 01       	movw	r24, r22
 ac4:	9c 01       	movw	r18, r24
 ac6:	8f a1       	ldd	r24, Y+39	; 0x27
 ac8:	98 a5       	ldd	r25, Y+40	; 0x28
 aca:	fc 01       	movw	r30, r24
 acc:	20 83       	st	Z, r18
 ace:	31 83       	std	Z+1, r19	; 0x01
 ad0:	1c c0       	rjmp	.+56     	; 0xb0a <__EEPROM_REGION_LENGTH__+0x30a>
	}
	else
	{
		*x = (int16_t) precise_x;
 ad2:	6c 89       	ldd	r22, Y+20	; 0x14
 ad4:	7d 89       	ldd	r23, Y+21	; 0x15
 ad6:	8e 89       	ldd	r24, Y+22	; 0x16
 ad8:	9f 89       	ldd	r25, Y+23	; 0x17
 ada:	0e 94 c0 05 	call	0xb80	; 0xb80 <__fixsfsi>
 ade:	dc 01       	movw	r26, r24
 ae0:	cb 01       	movw	r24, r22
 ae2:	9c 01       	movw	r18, r24
 ae4:	8d a1       	ldd	r24, Y+37	; 0x25
 ae6:	9e a1       	ldd	r25, Y+38	; 0x26
 ae8:	fc 01       	movw	r30, r24
 aea:	20 83       	st	Z, r18
 aec:	31 83       	std	Z+1, r19	; 0x01
		*y = (int16_t) precise_y;
 aee:	6e 8d       	ldd	r22, Y+30	; 0x1e
 af0:	7f 8d       	ldd	r23, Y+31	; 0x1f
 af2:	88 a1       	ldd	r24, Y+32	; 0x20
 af4:	99 a1       	ldd	r25, Y+33	; 0x21
 af6:	0e 94 c0 05 	call	0xb80	; 0xb80 <__fixsfsi>
 afa:	dc 01       	movw	r26, r24
 afc:	cb 01       	movw	r24, r22
 afe:	9c 01       	movw	r18, r24
 b00:	8f a1       	ldd	r24, Y+39	; 0x27
 b02:	98 a5       	ldd	r25, Y+40	; 0x28
 b04:	fc 01       	movw	r30, r24
 b06:	20 83       	st	Z, r18
 b08:	31 83       	std	Z+1, r19	; 0x01
	}

	if (eighth & 1)
 b0a:	89 81       	ldd	r24, Y+1	; 0x01
 b0c:	08 2e       	mov	r0, r24
 b0e:	00 0c       	add	r0, r0
 b10:	99 0b       	sbc	r25, r25
 b12:	81 70       	andi	r24, 0x01	; 1
 b14:	99 27       	eor	r25, r25
 b16:	89 2b       	or	r24, r25
 b18:	71 f0       	breq	.+28     	; 0xb36 <__EEPROM_REGION_LENGTH__+0x336>
	{
		*x = -*x;
 b1a:	8d a1       	ldd	r24, Y+37	; 0x25
 b1c:	9e a1       	ldd	r25, Y+38	; 0x26
 b1e:	fc 01       	movw	r30, r24
 b20:	80 81       	ld	r24, Z
 b22:	91 81       	ldd	r25, Z+1	; 0x01
 b24:	22 27       	eor	r18, r18
 b26:	33 27       	eor	r19, r19
 b28:	28 1b       	sub	r18, r24
 b2a:	39 0b       	sbc	r19, r25
 b2c:	8d a1       	ldd	r24, Y+37	; 0x25
 b2e:	9e a1       	ldd	r25, Y+38	; 0x26
 b30:	fc 01       	movw	r30, r24
 b32:	20 83       	st	Z, r18
 b34:	31 83       	std	Z+1, r19	; 0x01
	}

	if (eighth & 4)
 b36:	89 81       	ldd	r24, Y+1	; 0x01
 b38:	08 2e       	mov	r0, r24
 b3a:	00 0c       	add	r0, r0
 b3c:	99 0b       	sbc	r25, r25
 b3e:	84 70       	andi	r24, 0x04	; 4
 b40:	99 27       	eor	r25, r25
 b42:	89 2b       	or	r24, r25
 b44:	91 f0       	breq	.+36     	; 0xb6a <__EEPROM_REGION_LENGTH__+0x36a>
	{
		*y = -*y;
 b46:	8f a1       	ldd	r24, Y+39	; 0x27
 b48:	98 a5       	ldd	r25, Y+40	; 0x28
 b4a:	fc 01       	movw	r30, r24
 b4c:	80 81       	ld	r24, Z
 b4e:	91 81       	ldd	r25, Z+1	; 0x01
 b50:	22 27       	eor	r18, r18
 b52:	33 27       	eor	r19, r19
 b54:	28 1b       	sub	r18, r24
 b56:	39 0b       	sbc	r19, r25
 b58:	8f a1       	ldd	r24, Y+39	; 0x27
 b5a:	98 a5       	ldd	r25, Y+40	; 0x28
 b5c:	fc 01       	movw	r30, r24
 b5e:	20 83       	st	Z, r18
 b60:	31 83       	std	Z+1, r19	; 0x01
	}


	return;
 b62:	00 00       	nop
 b64:	02 c0       	rjmp	.+4      	; 0xb6a <__EEPROM_REGION_LENGTH__+0x36a>


	// Check parameter because this is called externally
	if (0 == x || 0 == y)
	{
		return;
 b66:	00 00       	nop
 b68:	01 c0       	rjmp	.+2      	; 0xb6c <__EEPROM_REGION_LENGTH__+0x36c>
	{
		*y = -*y;
	}


	return;
 b6a:	00 00       	nop
}
 b6c:	a8 96       	adiw	r28, 0x28	; 40
 b6e:	cd bf       	out	0x3d, r28	; 61
 b70:	de bf       	out	0x3e, r29	; 62
 b72:	df 91       	pop	r29
 b74:	cf 91       	pop	r28
 b76:	ff 90       	pop	r15
 b78:	ef 90       	pop	r14
 b7a:	df 90       	pop	r13
 b7c:	cf 90       	pop	r12
 b7e:	08 95       	ret

00000b80 <__fixsfsi>:
 b80:	0e 94 c7 05 	call	0xb8e	; 0xb8e <__fixunssfsi>
 b84:	68 94       	set
 b86:	b1 11       	cpse	r27, r1
 b88:	0c 94 56 06 	jmp	0xcac	; 0xcac <__fp_szero>
 b8c:	08 95       	ret

00000b8e <__fixunssfsi>:
 b8e:	0e 94 3b 06 	call	0xc76	; 0xc76 <__fp_splitA>
 b92:	88 f0       	brcs	.+34     	; 0xbb6 <__fixunssfsi+0x28>
 b94:	9f 57       	subi	r25, 0x7F	; 127
 b96:	98 f0       	brcs	.+38     	; 0xbbe <__fixunssfsi+0x30>
 b98:	b9 2f       	mov	r27, r25
 b9a:	99 27       	eor	r25, r25
 b9c:	b7 51       	subi	r27, 0x17	; 23
 b9e:	b0 f0       	brcs	.+44     	; 0xbcc <__fixunssfsi+0x3e>
 ba0:	e1 f0       	breq	.+56     	; 0xbda <__fixunssfsi+0x4c>
 ba2:	66 0f       	add	r22, r22
 ba4:	77 1f       	adc	r23, r23
 ba6:	88 1f       	adc	r24, r24
 ba8:	99 1f       	adc	r25, r25
 baa:	1a f0       	brmi	.+6      	; 0xbb2 <__fixunssfsi+0x24>
 bac:	ba 95       	dec	r27
 bae:	c9 f7       	brne	.-14     	; 0xba2 <__fixunssfsi+0x14>
 bb0:	14 c0       	rjmp	.+40     	; 0xbda <__fixunssfsi+0x4c>
 bb2:	b1 30       	cpi	r27, 0x01	; 1
 bb4:	91 f0       	breq	.+36     	; 0xbda <__fixunssfsi+0x4c>
 bb6:	0e 94 55 06 	call	0xcaa	; 0xcaa <__fp_zero>
 bba:	b1 e0       	ldi	r27, 0x01	; 1
 bbc:	08 95       	ret
 bbe:	0c 94 55 06 	jmp	0xcaa	; 0xcaa <__fp_zero>
 bc2:	67 2f       	mov	r22, r23
 bc4:	78 2f       	mov	r23, r24
 bc6:	88 27       	eor	r24, r24
 bc8:	b8 5f       	subi	r27, 0xF8	; 248
 bca:	39 f0       	breq	.+14     	; 0xbda <__fixunssfsi+0x4c>
 bcc:	b9 3f       	cpi	r27, 0xF9	; 249
 bce:	cc f3       	brlt	.-14     	; 0xbc2 <__fixunssfsi+0x34>
 bd0:	86 95       	lsr	r24
 bd2:	77 95       	ror	r23
 bd4:	67 95       	ror	r22
 bd6:	b3 95       	inc	r27
 bd8:	d9 f7       	brne	.-10     	; 0xbd0 <__fixunssfsi+0x42>
 bda:	3e f4       	brtc	.+14     	; 0xbea <__fixunssfsi+0x5c>
 bdc:	90 95       	com	r25
 bde:	80 95       	com	r24
 be0:	70 95       	com	r23
 be2:	61 95       	neg	r22
 be4:	7f 4f       	sbci	r23, 0xFF	; 255
 be6:	8f 4f       	sbci	r24, 0xFF	; 255
 be8:	9f 4f       	sbci	r25, 0xFF	; 255
 bea:	08 95       	ret

00000bec <__floatunsisf>:
 bec:	e8 94       	clt
 bee:	09 c0       	rjmp	.+18     	; 0xc02 <__floatsisf+0x12>

00000bf0 <__floatsisf>:
 bf0:	97 fb       	bst	r25, 7
 bf2:	3e f4       	brtc	.+14     	; 0xc02 <__floatsisf+0x12>
 bf4:	90 95       	com	r25
 bf6:	80 95       	com	r24
 bf8:	70 95       	com	r23
 bfa:	61 95       	neg	r22
 bfc:	7f 4f       	sbci	r23, 0xFF	; 255
 bfe:	8f 4f       	sbci	r24, 0xFF	; 255
 c00:	9f 4f       	sbci	r25, 0xFF	; 255
 c02:	99 23       	and	r25, r25
 c04:	a9 f0       	breq	.+42     	; 0xc30 <__floatsisf+0x40>
 c06:	f9 2f       	mov	r31, r25
 c08:	96 e9       	ldi	r25, 0x96	; 150
 c0a:	bb 27       	eor	r27, r27
 c0c:	93 95       	inc	r25
 c0e:	f6 95       	lsr	r31
 c10:	87 95       	ror	r24
 c12:	77 95       	ror	r23
 c14:	67 95       	ror	r22
 c16:	b7 95       	ror	r27
 c18:	f1 11       	cpse	r31, r1
 c1a:	f8 cf       	rjmp	.-16     	; 0xc0c <__floatsisf+0x1c>
 c1c:	fa f4       	brpl	.+62     	; 0xc5c <__floatsisf+0x6c>
 c1e:	bb 0f       	add	r27, r27
 c20:	11 f4       	brne	.+4      	; 0xc26 <__floatsisf+0x36>
 c22:	60 ff       	sbrs	r22, 0
 c24:	1b c0       	rjmp	.+54     	; 0xc5c <__floatsisf+0x6c>
 c26:	6f 5f       	subi	r22, 0xFF	; 255
 c28:	7f 4f       	sbci	r23, 0xFF	; 255
 c2a:	8f 4f       	sbci	r24, 0xFF	; 255
 c2c:	9f 4f       	sbci	r25, 0xFF	; 255
 c2e:	16 c0       	rjmp	.+44     	; 0xc5c <__floatsisf+0x6c>
 c30:	88 23       	and	r24, r24
 c32:	11 f0       	breq	.+4      	; 0xc38 <__floatsisf+0x48>
 c34:	96 e9       	ldi	r25, 0x96	; 150
 c36:	11 c0       	rjmp	.+34     	; 0xc5a <__floatsisf+0x6a>
 c38:	77 23       	and	r23, r23
 c3a:	21 f0       	breq	.+8      	; 0xc44 <__floatsisf+0x54>
 c3c:	9e e8       	ldi	r25, 0x8E	; 142
 c3e:	87 2f       	mov	r24, r23
 c40:	76 2f       	mov	r23, r22
 c42:	05 c0       	rjmp	.+10     	; 0xc4e <__floatsisf+0x5e>
 c44:	66 23       	and	r22, r22
 c46:	71 f0       	breq	.+28     	; 0xc64 <__floatsisf+0x74>
 c48:	96 e8       	ldi	r25, 0x86	; 134
 c4a:	86 2f       	mov	r24, r22
 c4c:	70 e0       	ldi	r23, 0x00	; 0
 c4e:	60 e0       	ldi	r22, 0x00	; 0
 c50:	2a f0       	brmi	.+10     	; 0xc5c <__floatsisf+0x6c>
 c52:	9a 95       	dec	r25
 c54:	66 0f       	add	r22, r22
 c56:	77 1f       	adc	r23, r23
 c58:	88 1f       	adc	r24, r24
 c5a:	da f7       	brpl	.-10     	; 0xc52 <__floatsisf+0x62>
 c5c:	88 0f       	add	r24, r24
 c5e:	96 95       	lsr	r25
 c60:	87 95       	ror	r24
 c62:	97 f9       	bld	r25, 7
 c64:	08 95       	ret

00000c66 <__fp_split3>:
 c66:	57 fd       	sbrc	r21, 7
 c68:	90 58       	subi	r25, 0x80	; 128
 c6a:	44 0f       	add	r20, r20
 c6c:	55 1f       	adc	r21, r21
 c6e:	59 f0       	breq	.+22     	; 0xc86 <__fp_splitA+0x10>
 c70:	5f 3f       	cpi	r21, 0xFF	; 255
 c72:	71 f0       	breq	.+28     	; 0xc90 <__fp_splitA+0x1a>
 c74:	47 95       	ror	r20

00000c76 <__fp_splitA>:
 c76:	88 0f       	add	r24, r24
 c78:	97 fb       	bst	r25, 7
 c7a:	99 1f       	adc	r25, r25
 c7c:	61 f0       	breq	.+24     	; 0xc96 <__fp_splitA+0x20>
 c7e:	9f 3f       	cpi	r25, 0xFF	; 255
 c80:	79 f0       	breq	.+30     	; 0xca0 <__fp_splitA+0x2a>
 c82:	87 95       	ror	r24
 c84:	08 95       	ret
 c86:	12 16       	cp	r1, r18
 c88:	13 06       	cpc	r1, r19
 c8a:	14 06       	cpc	r1, r20
 c8c:	55 1f       	adc	r21, r21
 c8e:	f2 cf       	rjmp	.-28     	; 0xc74 <__fp_split3+0xe>
 c90:	46 95       	lsr	r20
 c92:	f1 df       	rcall	.-30     	; 0xc76 <__fp_splitA>
 c94:	08 c0       	rjmp	.+16     	; 0xca6 <__fp_splitA+0x30>
 c96:	16 16       	cp	r1, r22
 c98:	17 06       	cpc	r1, r23
 c9a:	18 06       	cpc	r1, r24
 c9c:	99 1f       	adc	r25, r25
 c9e:	f1 cf       	rjmp	.-30     	; 0xc82 <__fp_splitA+0xc>
 ca0:	86 95       	lsr	r24
 ca2:	71 05       	cpc	r23, r1
 ca4:	61 05       	cpc	r22, r1
 ca6:	08 94       	sec
 ca8:	08 95       	ret

00000caa <__fp_zero>:
 caa:	e8 94       	clt

00000cac <__fp_szero>:
 cac:	bb 27       	eor	r27, r27
 cae:	66 27       	eor	r22, r22
 cb0:	77 27       	eor	r23, r23
 cb2:	cb 01       	movw	r24, r22
 cb4:	97 f9       	bld	r25, 7
 cb6:	08 95       	ret

00000cb8 <__mulsf3>:
 cb8:	0e 94 6f 06 	call	0xcde	; 0xcde <__mulsf3x>
 cbc:	0c 94 e0 06 	jmp	0xdc0	; 0xdc0 <__fp_round>
 cc0:	0e 94 d2 06 	call	0xda4	; 0xda4 <__fp_pscA>
 cc4:	38 f0       	brcs	.+14     	; 0xcd4 <__mulsf3+0x1c>
 cc6:	0e 94 d9 06 	call	0xdb2	; 0xdb2 <__fp_pscB>
 cca:	20 f0       	brcs	.+8      	; 0xcd4 <__mulsf3+0x1c>
 ccc:	95 23       	and	r25, r21
 cce:	11 f0       	breq	.+4      	; 0xcd4 <__mulsf3+0x1c>
 cd0:	0c 94 c9 06 	jmp	0xd92	; 0xd92 <__fp_inf>
 cd4:	0c 94 cf 06 	jmp	0xd9e	; 0xd9e <__fp_nan>
 cd8:	11 24       	eor	r1, r1
 cda:	0c 94 56 06 	jmp	0xcac	; 0xcac <__fp_szero>

00000cde <__mulsf3x>:
 cde:	0e 94 33 06 	call	0xc66	; 0xc66 <__fp_split3>
 ce2:	70 f3       	brcs	.-36     	; 0xcc0 <__mulsf3+0x8>

00000ce4 <__mulsf3_pse>:
 ce4:	95 9f       	mul	r25, r21
 ce6:	c1 f3       	breq	.-16     	; 0xcd8 <__mulsf3+0x20>
 ce8:	95 0f       	add	r25, r21
 cea:	50 e0       	ldi	r21, 0x00	; 0
 cec:	55 1f       	adc	r21, r21
 cee:	62 9f       	mul	r22, r18
 cf0:	f0 01       	movw	r30, r0
 cf2:	72 9f       	mul	r23, r18
 cf4:	bb 27       	eor	r27, r27
 cf6:	f0 0d       	add	r31, r0
 cf8:	b1 1d       	adc	r27, r1
 cfa:	63 9f       	mul	r22, r19
 cfc:	aa 27       	eor	r26, r26
 cfe:	f0 0d       	add	r31, r0
 d00:	b1 1d       	adc	r27, r1
 d02:	aa 1f       	adc	r26, r26
 d04:	64 9f       	mul	r22, r20
 d06:	66 27       	eor	r22, r22
 d08:	b0 0d       	add	r27, r0
 d0a:	a1 1d       	adc	r26, r1
 d0c:	66 1f       	adc	r22, r22
 d0e:	82 9f       	mul	r24, r18
 d10:	22 27       	eor	r18, r18
 d12:	b0 0d       	add	r27, r0
 d14:	a1 1d       	adc	r26, r1
 d16:	62 1f       	adc	r22, r18
 d18:	73 9f       	mul	r23, r19
 d1a:	b0 0d       	add	r27, r0
 d1c:	a1 1d       	adc	r26, r1
 d1e:	62 1f       	adc	r22, r18
 d20:	83 9f       	mul	r24, r19
 d22:	a0 0d       	add	r26, r0
 d24:	61 1d       	adc	r22, r1
 d26:	22 1f       	adc	r18, r18
 d28:	74 9f       	mul	r23, r20
 d2a:	33 27       	eor	r19, r19
 d2c:	a0 0d       	add	r26, r0
 d2e:	61 1d       	adc	r22, r1
 d30:	23 1f       	adc	r18, r19
 d32:	84 9f       	mul	r24, r20
 d34:	60 0d       	add	r22, r0
 d36:	21 1d       	adc	r18, r1
 d38:	82 2f       	mov	r24, r18
 d3a:	76 2f       	mov	r23, r22
 d3c:	6a 2f       	mov	r22, r26
 d3e:	11 24       	eor	r1, r1
 d40:	9f 57       	subi	r25, 0x7F	; 127
 d42:	50 40       	sbci	r21, 0x00	; 0
 d44:	9a f0       	brmi	.+38     	; 0xd6c <__mulsf3_pse+0x88>
 d46:	f1 f0       	breq	.+60     	; 0xd84 <__mulsf3_pse+0xa0>
 d48:	88 23       	and	r24, r24
 d4a:	4a f0       	brmi	.+18     	; 0xd5e <__mulsf3_pse+0x7a>
 d4c:	ee 0f       	add	r30, r30
 d4e:	ff 1f       	adc	r31, r31
 d50:	bb 1f       	adc	r27, r27
 d52:	66 1f       	adc	r22, r22
 d54:	77 1f       	adc	r23, r23
 d56:	88 1f       	adc	r24, r24
 d58:	91 50       	subi	r25, 0x01	; 1
 d5a:	50 40       	sbci	r21, 0x00	; 0
 d5c:	a9 f7       	brne	.-22     	; 0xd48 <__mulsf3_pse+0x64>
 d5e:	9e 3f       	cpi	r25, 0xFE	; 254
 d60:	51 05       	cpc	r21, r1
 d62:	80 f0       	brcs	.+32     	; 0xd84 <__mulsf3_pse+0xa0>
 d64:	0c 94 c9 06 	jmp	0xd92	; 0xd92 <__fp_inf>
 d68:	0c 94 56 06 	jmp	0xcac	; 0xcac <__fp_szero>
 d6c:	5f 3f       	cpi	r21, 0xFF	; 255
 d6e:	e4 f3       	brlt	.-8      	; 0xd68 <__mulsf3_pse+0x84>
 d70:	98 3e       	cpi	r25, 0xE8	; 232
 d72:	d4 f3       	brlt	.-12     	; 0xd68 <__mulsf3_pse+0x84>
 d74:	86 95       	lsr	r24
 d76:	77 95       	ror	r23
 d78:	67 95       	ror	r22
 d7a:	b7 95       	ror	r27
 d7c:	f7 95       	ror	r31
 d7e:	e7 95       	ror	r30
 d80:	9f 5f       	subi	r25, 0xFF	; 255
 d82:	c1 f7       	brne	.-16     	; 0xd74 <__mulsf3_pse+0x90>
 d84:	fe 2b       	or	r31, r30
 d86:	88 0f       	add	r24, r24
 d88:	91 1d       	adc	r25, r1
 d8a:	96 95       	lsr	r25
 d8c:	87 95       	ror	r24
 d8e:	97 f9       	bld	r25, 7
 d90:	08 95       	ret

00000d92 <__fp_inf>:
 d92:	97 f9       	bld	r25, 7
 d94:	9f 67       	ori	r25, 0x7F	; 127
 d96:	80 e8       	ldi	r24, 0x80	; 128
 d98:	70 e0       	ldi	r23, 0x00	; 0
 d9a:	60 e0       	ldi	r22, 0x00	; 0
 d9c:	08 95       	ret

00000d9e <__fp_nan>:
 d9e:	9f ef       	ldi	r25, 0xFF	; 255
 da0:	80 ec       	ldi	r24, 0xC0	; 192
 da2:	08 95       	ret

00000da4 <__fp_pscA>:
 da4:	00 24       	eor	r0, r0
 da6:	0a 94       	dec	r0
 da8:	16 16       	cp	r1, r22
 daa:	17 06       	cpc	r1, r23
 dac:	18 06       	cpc	r1, r24
 dae:	09 06       	cpc	r0, r25
 db0:	08 95       	ret

00000db2 <__fp_pscB>:
 db2:	00 24       	eor	r0, r0
 db4:	0a 94       	dec	r0
 db6:	12 16       	cp	r1, r18
 db8:	13 06       	cpc	r1, r19
 dba:	14 06       	cpc	r1, r20
 dbc:	05 06       	cpc	r0, r21
 dbe:	08 95       	ret

00000dc0 <__fp_round>:
 dc0:	09 2e       	mov	r0, r25
 dc2:	03 94       	inc	r0
 dc4:	00 0c       	add	r0, r0
 dc6:	11 f4       	brne	.+4      	; 0xdcc <__fp_round+0xc>
 dc8:	88 23       	and	r24, r24
 dca:	52 f0       	brmi	.+20     	; 0xde0 <__fp_round+0x20>
 dcc:	bb 0f       	add	r27, r27
 dce:	40 f4       	brcc	.+16     	; 0xde0 <__fp_round+0x20>
 dd0:	bf 2b       	or	r27, r31
 dd2:	11 f4       	brne	.+4      	; 0xdd8 <__fp_round+0x18>
 dd4:	60 ff       	sbrs	r22, 0
 dd6:	04 c0       	rjmp	.+8      	; 0xde0 <__fp_round+0x20>
 dd8:	6f 5f       	subi	r22, 0xFF	; 255
 dda:	7f 4f       	sbci	r23, 0xFF	; 255
 ddc:	8f 4f       	sbci	r24, 0xFF	; 255
 dde:	9f 4f       	sbci	r25, 0xFF	; 255
 de0:	08 95       	ret

00000de2 <__divmodhi4>:
 de2:	97 fb       	bst	r25, 7
 de4:	07 2e       	mov	r0, r23
 de6:	16 f4       	brtc	.+4      	; 0xdec <__divmodhi4+0xa>
 de8:	00 94       	com	r0
 dea:	07 d0       	rcall	.+14     	; 0xdfa <__divmodhi4_neg1>
 dec:	77 fd       	sbrc	r23, 7
 dee:	09 d0       	rcall	.+18     	; 0xe02 <__divmodhi4_neg2>
 df0:	0e 94 14 07 	call	0xe28	; 0xe28 <__udivmodhi4>
 df4:	07 fc       	sbrc	r0, 7
 df6:	05 d0       	rcall	.+10     	; 0xe02 <__divmodhi4_neg2>
 df8:	3e f4       	brtc	.+14     	; 0xe08 <__divmodhi4_exit>

00000dfa <__divmodhi4_neg1>:
 dfa:	90 95       	com	r25
 dfc:	81 95       	neg	r24
 dfe:	9f 4f       	sbci	r25, 0xFF	; 255
 e00:	08 95       	ret

00000e02 <__divmodhi4_neg2>:
 e02:	70 95       	com	r23
 e04:	61 95       	neg	r22
 e06:	7f 4f       	sbci	r23, 0xFF	; 255

00000e08 <__divmodhi4_exit>:
 e08:	08 95       	ret

00000e0a <__umulhisi3>:
 e0a:	a2 9f       	mul	r26, r18
 e0c:	b0 01       	movw	r22, r0
 e0e:	b3 9f       	mul	r27, r19
 e10:	c0 01       	movw	r24, r0
 e12:	a3 9f       	mul	r26, r19
 e14:	70 0d       	add	r23, r0
 e16:	81 1d       	adc	r24, r1
 e18:	11 24       	eor	r1, r1
 e1a:	91 1d       	adc	r25, r1
 e1c:	b2 9f       	mul	r27, r18
 e1e:	70 0d       	add	r23, r0
 e20:	81 1d       	adc	r24, r1
 e22:	11 24       	eor	r1, r1
 e24:	91 1d       	adc	r25, r1
 e26:	08 95       	ret

00000e28 <__udivmodhi4>:
 e28:	aa 1b       	sub	r26, r26
 e2a:	bb 1b       	sub	r27, r27
 e2c:	51 e1       	ldi	r21, 0x11	; 17
 e2e:	07 c0       	rjmp	.+14     	; 0xe3e <__udivmodhi4_ep>

00000e30 <__udivmodhi4_loop>:
 e30:	aa 1f       	adc	r26, r26
 e32:	bb 1f       	adc	r27, r27
 e34:	a6 17       	cp	r26, r22
 e36:	b7 07       	cpc	r27, r23
 e38:	10 f0       	brcs	.+4      	; 0xe3e <__udivmodhi4_ep>
 e3a:	a6 1b       	sub	r26, r22
 e3c:	b7 0b       	sbc	r27, r23

00000e3e <__udivmodhi4_ep>:
 e3e:	88 1f       	adc	r24, r24
 e40:	99 1f       	adc	r25, r25
 e42:	5a 95       	dec	r21
 e44:	a9 f7       	brne	.-22     	; 0xe30 <__udivmodhi4_loop>
 e46:	80 95       	com	r24
 e48:	90 95       	com	r25
 e4a:	bc 01       	movw	r22, r24
 e4c:	cd 01       	movw	r24, r26
 e4e:	08 95       	ret

00000e50 <_exit>:
 e50:	f8 94       	cli

00000e52 <__stop_program>:
 e52:	ff cf       	rjmp	.-2      	; 0xe52 <__stop_program>
